ASxxxx Linker V03.00 + NoICE + sdld,  page 1.
Hexadecimal  [32-Bits]

Area                       Addr        Size        Decimal Bytes (Attributes)
--------------------       ----        ----        ------- ----- ------------
.  .ABS.               00000000    00000000 =           0. bytes (ABS,CON)

        Value  Global            Value  Global            Value  Global    
        -----  ------            -----  ------            -----  ------    
     00000000  .__.ABS.  |    00000000  _rRAMG    |    00000000  l__BASE  
     00000000  l__BSS    |    00000000  l__CABS   |    00000000  l__DABS  
     00000000  l__HEADER |    00000000  l__HEADER |    00000000  l__HEAP  
     00000000  l__HRAM   |    00000000  l__LIT    |    00000000  s__CABS  
     00000000  s__DABS   |    00000000  s__HEADER |    00000000  s__HEADER
     00000000  s__HEADER |    00000000  s__HEADER |    00000000  s__HEADER
     00000000  s__HEADER |    00000000  s__HEADER |    00000000  s__HEADER
     00000000  s__HEADER |    00000000  s__HEADER |    00000000  s__HEADER
     00000000  s__HEADER |    00000000  s__HEADER |    00000000  s__HEADER
     00000000  s__HEADER |    00000000  s__HEADER |    00000000  s__HEADER
     00000000  s__HEADER |    00000000  s__HEADER |    00000000  s__HEADER
     00000000  s__HEADER |    00000000  s__HRAM   |    00000000  s__HRAM12
     00000001  ___bank_f |    00000001  ___bank_f |    00000001  l__GSFINA
     00000001  l__HEADER |    00000001  l__HEADER |    00000001  l__HEADER
     00000001  l__HEADER |    00000001  l__HEADER |    00000001  l__HEADER
     00000001  l__HEADER |    00000002  l__HEADER |    00000002  l__HEADER
     00000002  l__HEADER |    00000003  l__HEADER |    00000003  l__HEADER
     00000003  l__HRAM12 |    00000005  l__HEADER |    00000006  l__HEADER
     00000007  l__HEADER |    00000008  l__HEADER |    0000000C  l__GSINIT
     00000030  l__HEADER |    0000003B  l__INITIA |    0000003B  l__INITIA
     0000004F  l__HEADER |    00000059  l__DATA   |    00000082  l__HEADER
     000000AC  l__CODE_1 |    00000200  s__CODE   |    00000440  l__CODE_0
     000004E5  l__HOME   |    00001A82  l__CODE   |    00001C82  s__HOME  
     00002000  _rROMB0   |    00002167  s__BASE   |    00002167  s__CODE_0
     000025A7  s__INITIA |    000025A7  s__LIT    |    000025E2  s__GSINIT
     000025EE  s__GSFINA |    00003000  _rROMB1   |    00004000  _rRAMB   
     00008000  __VRAM    |    00008000  __VRAM800 |    00008800  __VRAM880
     00009000  __VRAM900 |    00009800  __SCRN0   |    00009C00  __SCRN1  
     0000A000  __SRAM    |    0000C000  __RAM     |    0000C000  _shadow_O
     0000C0A0  s__DATA   |    0000C0F9  s__BSS    |    0000C0F9  s__INITIA
     0000C134  s__HEAP   |    0000D000  __RAMBANK |    0000E000  .STACK   
     0000FE00  __OAMRAM  |    0000FF00  _P1_REG   |    0000FF00  __IO     
     0000FF01  _SB_REG   |    0000FF02  _SC_REG   |    0000FF04  _DIV_REG 
     0000FF05  _TIMA_REG |    0000FF06  _TMA_REG  |    0000FF07  _TAC_REG 
     0000FF0F  _IF_REG   |    0000FF10  _NR10_REG |    0000FF11  _NR11_REG
     0000FF12  _NR12_REG |    0000FF13  _NR13_REG |    0000FF14  _NR14_REG
     0000FF16  _NR21_REG |    0000FF17  _NR22_REG |    0000FF18  _NR23_REG
     0000FF19  _NR24_REG |    0000FF1A  _NR30_REG |    0000FF1B  _NR31_REG
     0000FF1C  _NR32_REG |    0000FF1D  _NR33_REG |    0000FF1E  _NR34_REG
     0000FF20  _NR41_REG |    0000FF21  _NR42_REG |    0000FF22  _NR43_REG
     0000FF23  _NR44_REG |    0000FF24  _NR50_REG |    0000FF25  _NR51_REG
     0000FF26  _NR52_REG |    0000FF30  _PCM_SAMP |    0000FF30  __AUD3WAV
     0000FF40  _LCDC_REG |    0000FF41  _STAT_REG |    0000FF42  _SCY_REG 
     0000FF43  _SCX_REG  |    0000FF44  _LY_REG   |    0000FF45  _LYC_REG 
     0000FF46  _DMA_REG  |    0000FF47  _BGP_REG  |    0000FF48  _OBP0_REG
     0000FF49  _OBP1_REG |    0000FF4A  _WY_REG   |    0000FF4B  _WX_REG  
     0000FF4D  _KEY1_REG |    0000FF4F  _VBK_REG  |    0000FF51  _HDMA1_RE
     0000FF52  _HDMA2_RE |    0000FF53  _HDMA3_RE |    0000FF54  _HDMA4_RE
     0000FF55  _HDMA5_RE |    0000FF56  _RP_REG   |    0000FF68  _BCPS_REG
     0000FF69  _BCPD_REG |    0000FF6A  _OCPS_REG |    0000FF6B  _OCPD_REG
ASxxxx Linker V03.00 + NoICE + sdld,  page 2.
Hexadecimal  [32-Bits]

Area                       Addr        Size        Decimal Bytes (Attributes)
--------------------       ----        ----        ------- ----- ------------
.  .ABS.               00000000    00000000 =           0. bytes (ABS,CON)

        Value  Global            Value  Global            Value  Global    
        -----  ------            -----  ------            -----  ------    
     0000FF70  _SVBK_REG |    0000FF76  _PCM12_RE |    0000FF77  _PCM34_RE
     0000FF80  .refresh_ |    0000FF80  __HRAM    |    0000FFFF  _IE_REG  
     00014000  s__CODE_1
ASxxxx Linker V03.00 + NoICE + sdld,  page 3.
Hexadecimal  [32-Bits]

Area                       Addr        Size        Decimal Bytes (Attributes)
--------------------       ----        ----        ------- ----- ------------
_CODE                  00000200    00001A82 =        6786. bytes (REL,CON)

        Value  Global            Value  Global            Value  Global    
        -----  ------            -----  ------            -----  ------    
     00000200  A$lcc1725 |    00000200  C$main.c$ |    00000200  G$render_
     00000200  _render_s |    00000202  A$lcc1725 |    00000202  C$main.c$
     00000204  A$lcc1725 |    00000205  A$lcc1725 |    00000207  A$lcc1725
     00000208  A$lcc1725 |    0000020A  A$lcc1725 |    0000020B  A$lcc1725
     0000020D  A$lcc1725 |    0000020D  C$main.c$ |    0000020E  A$lcc1725
     0000020F  A$lcc1725 |    00000210  A$lcc1725 |    00000211  A$lcc1725
     00000212  A$lcc1725 |    00000213  A$lcc1725 |    00000214  A$lcc1725
     00000216  A$lcc1725 |    00000217  A$lcc1725 |    00000218  A$lcc1725
     00000219  A$lcc1725 |    0000021A  A$lcc1725 |    0000021B  A$lcc1725
     0000021C  A$lcc1725 |    0000021E  A$lcc1725 |    0000021E  C$main.c$
     0000021F  A$lcc1725 |    00000220  A$lcc1725 |    00000223  A$lcc1725
     00000224  A$lcc1725 |    00000226  A$lcc1725 |    00000227  A$lcc1725
     00000228  A$lcc1725 |    00000229  A$lcc1725 |    0000022A  A$lcc1725
     0000022B  A$lcc1725 |    0000022D  A$lcc1725 |    0000022E  A$lcc1725
     0000022F  A$lcc1725 |    00000230  A$lcc1725 |    00000231  A$lcc1725
     00000234  A$lcc1725 |    00000236  A$lcc1725 |    00000237  A$lcc1725
     00000239  A$lcc1725 |    0000023A  A$lcc1725 |    0000023C  A$lcc1725
     0000023D  A$lcc1725 |    0000023E  A$lcc1725 |    0000023F  A$lcc1725
     00000240  A$lcc1725 |    00000242  A$lcc1725 |    00000243  A$lcc1725
     00000245  A$lcc1725 |    00000246  A$lcc1725 |    00000247  A$lcc1725
     00000247  C$main.c$ |    0000024A  A$lcc1725 |    0000024B  A$lcc1725
     0000024D  A$lcc1725 |    0000024E  A$lcc1725 |    00000250  A$lcc1725
     00000251  A$lcc1725 |    00000252  A$lcc1725 |    00000253  A$lcc1725
     00000254  A$lcc1725 |    00000256  A$lcc1725 |    00000257  A$lcc1725
     00000258  A$lcc1725 |    00000259  A$lcc1725 |    0000025A  A$lcc1725
     0000025D  A$lcc1725 |    0000025F  A$lcc1725 |    00000260  A$lcc1725
     00000261  A$lcc1725 |    00000263  A$lcc1725 |    00000264  A$lcc1725
     00000265  A$lcc1725 |    00000266  A$lcc1725 |    00000267  A$lcc1725
     00000268  A$lcc1725 |    00000269  A$lcc1725 |    0000026A  A$lcc1725
     0000026C  A$lcc1725 |    0000026C  C$main.c$ |    0000026E  A$lcc1725
     0000026F  A$lcc1725 |    00000270  A$lcc1725 |    00000271  A$lcc1725
     00000273  A$lcc1725 |    00000273  C$main.c$ |    00000274  A$lcc1725
     00000275  A$lcc1725 |    00000276  A$lcc1725 |    00000279  A$lcc1725
     0000027A  A$lcc1725 |    0000027C  A$lcc1725 |    0000027C  C$main.c$
     0000027C  XG$render |    0000027D  A$lcc1725 |    0000027D  C$main.c$
     0000027D  C$main.c$ |    0000027D  G$update_ |    0000027D  _update_s
     00000280  A$lcc1725 |    00000281  A$lcc1725 |    00000284  A$lcc1725
     00000285  A$lcc1725 |    00000288  A$lcc1725 |    00000289  A$lcc1725
     0000028A  A$lcc1725 |    0000028B  A$lcc1725 |    0000028B  C$main.c$
     0000028E  A$lcc1725 |    00000290  A$lcc1725 |    00000291  A$lcc1725
     00000292  A$lcc1725 |    00000294  A$lcc1725 |    00000295  A$lcc1725
     00000296  A$lcc1725 |    00000298  A$lcc1725 |    00000299  A$lcc1725
     0000029A  A$lcc1725 |    0000029C  A$lcc1725 |    0000029D  A$lcc1725
     0000029F  A$lcc1725 |    0000029F  C$main.c$ |    000002A2  A$lcc1725
     000002A3  A$lcc1725 |    000002A6  A$lcc1725 |    000002A7  A$lcc1725
     000002A8  A$lcc1725 |    000002A9  A$lcc1725 |    000002AA  A$lcc1725
     000002AD  A$lcc1725 |    000002AE  A$lcc1725 |    000002AF  A$lcc1725
     000002B0  A$lcc1725 |    000002B1  A$lcc1725 |    000002B4  A$lcc1725
     000002B6  A$lcc1725 |    000002B8  A$lcc1725 |    000002B8  C$main.c$
     000002BB  A$lcc1725 |    000002BC  A$lcc1725 |    000002BD  A$lcc1725
ASxxxx Linker V03.00 + NoICE + sdld,  page 4.
Hexadecimal  [32-Bits]

Area                       Addr        Size        Decimal Bytes (Attributes)
--------------------       ----        ----        ------- ----- ------------
_CODE                  00000200    00001A82 =        6786. bytes (REL,CON)

        Value  Global            Value  Global            Value  Global    
        -----  ------            -----  ------            -----  ------    
     000002BE  A$lcc1725 |    000002BF  A$lcc1725 |    000002C2  A$lcc1725
     000002C3  A$lcc1725 |    000002C4  A$lcc1725 |    000002C5  A$lcc1725
     000002C6  A$lcc1725 |    000002C9  A$lcc1725 |    000002CA  A$lcc1725
     000002CD  A$lcc1725 |    000002CE  A$lcc1725 |    000002D1  A$lcc1725
     000002D3  A$lcc1725 |    000002D3  C$main.c$ |    000002D6  A$lcc1725
     000002D7  A$lcc1725 |    000002D8  A$lcc1725 |    000002D9  A$lcc1725
     000002D9  C$main.c$ |    000002DB  A$lcc1725 |    000002DC  A$lcc1725
     000002DD  A$lcc1725 |    000002E0  A$lcc1725 |    000002E1  A$lcc1725
     000002E2  A$lcc1725 |    000002E3  A$lcc1725 |    000002E4  A$lcc1725
     000002E7  A$lcc1725 |    000002E9  A$lcc1725 |    000002E9  C$main.c$
     000002EC  A$lcc1725 |    000002ED  A$lcc1725 |    000002EF  A$lcc1725
     000002F0  A$lcc1725 |    000002F1  A$lcc1725 |    000002F1  C$main.c$
     000002F2  A$lcc1725 |    000002F2  C$main.c$ |    000002F2  XG$update
     000002F4  Fmain$__s |    000002F7  A$lcc1725 |    000002F7  C$main.c$
     000002F7  C$main.c$ |    000002F7  G$reset_f |    000002F7  _reset_fr
     000002FA  A$lcc1725 |    000002FC  A$lcc1725 |    000002FC  C$main.c$
     000002FF  A$lcc1725 |    00000301  A$lcc1725 |    00000304  A$lcc1725
     00000306  A$lcc1725 |    00000306  C$main.c$ |    00000309  A$lcc1725
     0000030B  A$lcc1725 |    0000030C  A$lcc1725 |    0000030E  A$lcc1725
     0000030E  C$main.c$ |    00000311  A$lcc1725 |    00000313  A$lcc1725
     00000314  A$lcc1725 |    00000316  A$lcc1725 |    00000316  C$main.c$
     00000319  A$lcc1725 |    0000031B  A$lcc1725 |    0000031E  A$lcc1725
     0000031F  A$lcc1725 |    00000322  A$lcc1725 |    00000323  A$lcc1725
     00000326  A$lcc1725 |    00000327  A$lcc1725 |    00000328  A$lcc1725
     00000329  A$lcc1725 |    0000032A  A$lcc1725 |    0000032D  A$lcc1725
     0000032E  A$lcc1725 |    0000032F  A$lcc1725 |    00000330  A$lcc1725
     00000333  A$lcc1725 |    00000335  A$lcc1725 |    00000336  A$lcc1725
     00000337  A$lcc1725 |    00000338  A$lcc1725 |    00000339  A$lcc1725
     0000033A  A$lcc1725 |    0000033B  A$lcc1725 |    0000033C  A$lcc1725
     0000033D  A$lcc1725 |    00000340  A$lcc1725 |    00000342  A$lcc1725
     00000342  C$main.c$ |    00000342  C$main.c$ |    00000342  XG$reset_
     00000343  A$lcc1725 |    00000343  C$main.c$ |    00000343  C$main.c$
     00000343  G$init_le |    00000343  _init_lev |    00000346  A$lcc1725
     00000347  A$lcc1725 |    0000034A  A$lcc1725 |    0000034B  A$lcc1725
     0000034E  A$lcc1725 |    00000350  A$lcc1725 |    00000350  C$main.c$
     00000353  A$lcc1725 |    00000354  A$lcc1725 |    00000357  A$lcc1725
     00000358  A$lcc1725 |    0000035B  A$lcc1725 |    0000035D  A$lcc1725
     0000035D  C$main.c$ |    00000360  A$lcc1725 |    00000361  A$lcc1725
     00000364  A$lcc1725 |    00000365  A$lcc1725 |    00000368  A$lcc1725
     0000036A  A$lcc1725 |    0000036A  C$main.c$ |    0000036D  A$lcc1725
     0000036E  A$lcc1725 |    00000371  A$lcc1725 |    00000372  A$lcc1725
     00000373  A$lcc1725 |    00000374  A$lcc1725 |    00000375  A$lcc1725
     00000376  A$lcc1725 |    00000379  A$lcc1725 |    0000037B  A$lcc1725
     0000037B  C$main.c$ |    0000037E  A$lcc1725 |    00000380  A$lcc1725
     00000380  C$main.c$ |    00000383  A$lcc1725 |    00000383  C$main.c$
     00000383  C$main.c$ |    00000383  XG$init_l |    00000386  A$lcc1725
     00000386  C$main.c$ |    00000386  G$move_fr |    00000386  _move_fro
     00000387  A$lcc1725 |    00000388  A$lcc1725 |    00000388  C$main.c$
     0000038B  A$lcc1725 |    0000038C  A$lcc1725 |    0000038E  A$lcc1725
     0000038E  C$main.c$ |    00000391  A$lcc1725 |    00000392  A$lcc1725
     00000394  A$lcc1725 |    00000395  A$lcc1725 |    00000396  A$lcc1725
ASxxxx Linker V03.00 + NoICE + sdld,  page 5.
Hexadecimal  [32-Bits]

Area                       Addr        Size        Decimal Bytes (Attributes)
--------------------       ----        ----        ------- ----- ------------
_CODE                  00000200    00001A82 =        6786. bytes (REL,CON)

        Value  Global            Value  Global            Value  Global    
        -----  ------            -----  ------            -----  ------    
     00000397  A$lcc1725 |    00000398  A$lcc1725 |    0000039B  A$lcc1725
     0000039D  A$lcc1725 |    0000039F  A$lcc1725 |    000003A2  A$lcc1725
     000003A4  A$lcc1725 |    000003A7  A$lcc1725 |    000003A8  A$lcc1725
     000003A9  A$lcc1725 |    000003AA  A$lcc1725 |    000003AB  A$lcc1725
     000003AC  A$lcc1725 |    000003AF  A$lcc1725 |    000003B0  A$lcc1725
     000003B1  A$lcc1725 |    000003B2  A$lcc1725 |    000003B5  A$lcc1725
     000003B7  A$lcc1725 |    000003B8  A$lcc1725 |    000003BB  A$lcc1725
     000003BC  A$lcc1725 |    000003BD  A$lcc1725 |    000003BE  A$lcc1725
     000003C1  A$lcc1725 |    000003C2  A$lcc1725 |    000003C3  A$lcc1725
     000003C4  A$lcc1725 |    000003C7  A$lcc1725 |    000003C9  A$lcc1725
     000003CB  A$lcc1725 |    000003CC  A$lcc1725 |    000003CD  A$lcc1725
     000003CE  A$lcc1725 |    000003CF  A$lcc1725 |    000003D1  A$lcc1725
     000003D2  A$lcc1725 |    000003D5  A$lcc1725 |    000003D7  A$lcc1725
     000003D7  C$main.c$ |    000003D9  A$lcc1725 |    000003D9  C$main.c$
     000003DC  A$lcc1725 |    000003DD  A$lcc1725 |    000003DF  A$lcc1725
     000003DF  C$main.c$ |    000003E2  A$lcc1725 |    000003E3  A$lcc1725
     000003E4  A$lcc1725 |    000003E5  A$lcc1725 |    000003E8  A$lcc1725
     000003EA  A$lcc1725 |    000003EC  A$lcc1725 |    000003EF  A$lcc1725
     000003F1  A$lcc1725 |    000003F4  A$lcc1725 |    000003F5  A$lcc1725
     000003F6  A$lcc1725 |    000003F7  A$lcc1725 |    000003FA  A$lcc1725
     000003FB  A$lcc1725 |    000003FC  A$lcc1725 |    000003FD  A$lcc1725
     00000400  A$lcc1725 |    00000401  A$lcc1725 |    00000404  A$lcc1725
     00000405  A$lcc1725 |    00000406  A$lcc1725 |    00000407  A$lcc1725
     00000408  A$lcc1725 |    0000040B  A$lcc1725 |    0000040C  A$lcc1725
     0000040D  A$lcc1725 |    0000040E  A$lcc1725 |    00000411  A$lcc1725
     00000413  A$lcc1725 |    00000414  A$lcc1725 |    00000415  A$lcc1725
     00000416  A$lcc1725 |    00000417  A$lcc1725 |    00000418  A$lcc1725
     00000419  A$lcc1725 |    0000041A  A$lcc1725 |    0000041B  A$lcc1725
     0000041E  A$lcc1725 |    00000420  A$lcc1725 |    00000420  C$main.c$
     00000421  A$lcc1725 |    00000422  A$lcc1725 |    00000422  C$main.c$
     00000422  XG$move_f |    00000423  A$lcc1725 |    00000423  C$main.c$
     00000423  C$main.c$ |    00000423  G$paralla |    00000423  _parallax
     00000425  A$lcc1725 |    00000426  A$lcc1725 |    00000428  A$lcc1725
     0000042A  A$lcc1725 |    0000042C  A$lcc1725 |    0000042E  A$lcc1725
     00000430  A$lcc1725 |    00000432  A$lcc1725 |    00000434  A$lcc1725
     00000436  A$lcc1725 |    00000438  A$lcc1725 |    0000043A  A$lcc1725
     0000043C  A$lcc1725 |    0000043E  A$lcc1725 |    00000440  A$lcc1725
     00000442  A$lcc1725 |    00000444  A$lcc1725 |    00000446  A$lcc1725
     00000448  A$lcc1725 |    0000044A  A$lcc1725 |    0000044D  A$lcc1725
     0000044F  A$lcc1725 |    00000452  A$lcc1725 |    00000454  A$lcc1725
     00000457  A$lcc1725 |    00000459  A$lcc1725 |    0000045C  A$lcc1725
     0000045D  A$lcc1725 |    0000045D  C$main.c$ |    0000045E  A$lcc1725
     00000460  A$lcc1725 |    00000461  A$lcc1725 |    00000463  A$lcc1725
     00000463  C$main.c$ |    00000465  A$lcc1725 |    00000467  A$lcc1725
     00000467  C$main.c$ |    00000468  A$lcc1725 |    00000468  C$main.c$
     0000046B  A$lcc1725 |    0000046D  A$lcc1725 |    0000046E  A$lcc1725
     00000470  A$lcc1725 |    00000470  C$main.c$ |    00000472  A$lcc1725
     00000474  A$lcc1725 |    00000474  C$main.c$ |    00000475  A$lcc1725
     00000475  C$main.c$ |    00000478  A$lcc1725 |    0000047A  A$lcc1725
     0000047B  A$lcc1725 |    0000047D  A$lcc1725 |    0000047D  C$main.c$
     0000047F  A$lcc1725 |    00000481  A$lcc1725 |    00000481  C$main.c$
ASxxxx Linker V03.00 + NoICE + sdld,  page 6.
Hexadecimal  [32-Bits]

Area                       Addr        Size        Decimal Bytes (Attributes)
--------------------       ----        ----        ------- ----- ------------
_CODE                  00000200    00001A82 =        6786. bytes (REL,CON)

        Value  Global            Value  Global            Value  Global    
        -----  ------            -----  ------            -----  ------    
     00000482  A$lcc1725 |    00000482  C$main.c$ |    00000485  A$lcc1725
     00000487  A$lcc1725 |    00000488  A$lcc1725 |    0000048A  A$lcc1725
     0000048A  C$main.c$ |    0000048C  A$lcc1725 |    0000048E  A$lcc1725
     0000048E  C$main.c$ |    0000048F  A$lcc1725 |    0000048F  C$main.c$
     00000492  A$lcc1725 |    00000494  A$lcc1725 |    00000495  A$lcc1725
     00000497  A$lcc1725 |    00000497  C$main.c$ |    00000499  A$lcc1725
     0000049B  A$lcc1725 |    0000049B  C$main.c$ |    0000049C  A$lcc1725
     0000049C  C$main.c$ |    0000049F  A$lcc1725 |    000004A1  A$lcc1725
     000004A2  A$lcc1725 |    000004A4  A$lcc1725 |    000004A4  C$main.c$
     000004A6  A$lcc1725 |    000004A8  A$lcc1725 |    000004A8  C$main.c$
     000004A9  A$lcc1725 |    000004A9  C$main.c$ |    000004AA  A$lcc1725
     000004AC  A$lcc1725 |    000004AD  A$lcc1725 |    000004AF  A$lcc1725
     000004AF  C$main.c$ |    000004B1  A$lcc1725 |    000004B3  A$lcc1725
     000004B3  C$main.c$ |    000004B4  A$lcc1725 |    000004B4  C$main.c$
     000004B7  A$lcc1725 |    000004B9  A$lcc1725 |    000004BA  A$lcc1725
     000004BC  A$lcc1725 |    000004BC  C$main.c$ |    000004BE  A$lcc1725
     000004C0  A$lcc1725 |    000004C0  C$main.c$ |    000004C1  A$lcc1725
     000004C1  C$main.c$ |    000004C4  A$lcc1725 |    000004C6  A$lcc1725
     000004C7  A$lcc1725 |    000004C9  A$lcc1725 |    000004C9  C$main.c$
     000004CB  A$lcc1725 |    000004CD  A$lcc1725 |    000004CD  C$main.c$
     000004CE  A$lcc1725 |    000004CE  C$main.c$ |    000004D1  A$lcc1725
     000004D3  A$lcc1725 |    000004D4  A$lcc1725 |    000004D6  A$lcc1725
     000004D6  C$main.c$ |    000004D8  A$lcc1725 |    000004DA  A$lcc1725
     000004DA  C$main.c$ |    000004DB  A$lcc1725 |    000004DB  C$main.c$
     000004DE  A$lcc1725 |    000004E0  A$lcc1725 |    000004E1  A$lcc1725
     000004E3  A$lcc1725 |    000004E3  C$main.c$ |    000004E5  A$lcc1725
     000004E7  A$lcc1725 |    000004E7  C$main.c$ |    000004E8  A$lcc1725
     000004E8  C$main.c$ |    000004EB  A$lcc1725 |    000004ED  A$lcc1725
     000004EE  A$lcc1725 |    000004F0  A$lcc1725 |    000004F0  C$main.c$
     000004F2  A$lcc1725 |    000004F4  A$lcc1725 |    000004F4  C$main.c$
     000004F5  A$lcc1725 |    000004F5  C$main.c$ |    000004F6  A$lcc1725
     000004F8  A$lcc1725 |    000004F9  A$lcc1725 |    000004FB  A$lcc1725
     000004FB  C$main.c$ |    000004FC  A$lcc1725 |    000004FE  A$lcc1725
     000004FE  C$main.c$ |    000004FE  C$main.c$ |    000004FE  XG$parall
     000004FF  A$lcc1725 |    000004FF  C$main.c$ |    000004FF  G$scroll_
     000004FF  _scroll_c |    00000500  A$lcc1725 |    00000500  C$main.c$
     00000503  A$lcc1725 |    00000504  A$lcc1725 |    00000506  A$lcc1725
     00000509  A$lcc1725 |    0000050A  A$lcc1725 |    0000050B  A$lcc1725
     0000050E  A$lcc1725 |    00000510  A$lcc1725 |    00000511  A$lcc1725
     00000512  A$lcc1725 |    00000515  A$lcc1725 |    00000515  C$main.c$
     00000518  A$lcc1725 |    00000519  A$lcc1725 |    0000051A  A$lcc1725
     0000051B  A$lcc1725 |    0000051B  C$main.c$ |    0000051C  A$lcc1725
     0000051D  A$lcc1725 |    0000051E  A$lcc1725 |    0000051F  A$lcc1725
     00000520  A$lcc1725 |    00000521  A$lcc1725 |    00000521  C$main.c$
     00000522  A$lcc1725 |    00000523  A$lcc1725 |    00000524  A$lcc1725
     00000525  A$lcc1725 |    00000526  A$lcc1725 |    00000527  A$lcc1725
     00000528  A$lcc1725 |    0000052B  A$lcc1725 |    0000052C  A$lcc1725
     0000052C  C$main.c$ |    0000052C  C$main.c$ |    0000052C  C$main.c$
     0000052D  A$lcc1725 |    0000052F  A$lcc1725 |    0000052F  C$main.c$
     00000532  A$lcc1725 |    00000533  A$lcc1725 |    00000534  A$lcc1725
     00000535  A$lcc1725 |    00000536  A$lcc1725 |    00000539  A$lcc1725
ASxxxx Linker V03.00 + NoICE + sdld,  page 7.
Hexadecimal  [32-Bits]

Area                       Addr        Size        Decimal Bytes (Attributes)
--------------------       ----        ----        ------- ----- ------------
_CODE                  00000200    00001A82 =        6786. bytes (REL,CON)

        Value  Global            Value  Global            Value  Global    
        -----  ------            -----  ------            -----  ------    
     0000053A  A$lcc1725 |    0000053B  A$lcc1725 |    0000053C  A$lcc1725
     0000053F  A$lcc1725 |    00000541  A$lcc1725 |    00000542  A$lcc1725
     00000545  A$lcc1725 |    00000546  A$lcc1725 |    00000547  A$lcc1725
     00000548  A$lcc1725 |    00000549  A$lcc1725 |    0000054C  A$lcc1725
     0000054D  A$lcc1725 |    0000054E  A$lcc1725 |    0000054F  A$lcc1725
     00000552  A$lcc1725 |    00000554  A$lcc1725 |    00000556  A$lcc1725
     00000557  A$lcc1725 |    00000558  A$lcc1725 |    00000559  A$lcc1725
     0000055A  A$lcc1725 |    0000055C  A$lcc1725 |    0000055D  A$lcc1725
     00000560  A$lcc1725 |    00000562  A$lcc1725 |    00000562  C$main.c$
     00000562  C$main.c$ |    00000565  A$lcc1725 |    00000567  A$lcc1725
     00000569  A$lcc1725 |    00000569  C$main.c$ |    0000056C  A$lcc1725
     0000056D  A$lcc1725 |    0000056E  A$lcc1725 |    0000056F  A$lcc1725
     00000570  A$lcc1725 |    00000573  A$lcc1725 |    00000574  A$lcc1725
     00000575  A$lcc1725 |    00000576  A$lcc1725 |    00000579  A$lcc1725
     0000057B  A$lcc1725 |    0000057C  A$lcc1725 |    0000057F  A$lcc1725
     00000580  A$lcc1725 |    00000581  A$lcc1725 |    00000582  A$lcc1725
     00000583  A$lcc1725 |    00000586  A$lcc1725 |    00000587  A$lcc1725
     00000588  A$lcc1725 |    00000589  A$lcc1725 |    0000058C  A$lcc1725
     0000058E  A$lcc1725 |    00000590  A$lcc1725 |    00000591  A$lcc1725
     00000592  A$lcc1725 |    00000593  A$lcc1725 |    00000594  A$lcc1725
     00000596  A$lcc1725 |    00000597  A$lcc1725 |    0000059A  A$lcc1725
     0000059C  A$lcc1725 |    0000059C  C$main.c$ |    0000059C  C$main.c$
     0000059F  A$lcc1725 |    000005A0  A$lcc1725 |    000005A2  A$lcc1725
     000005A5  A$lcc1725 |    000005A6  A$lcc1725 |    000005A7  A$lcc1725
     000005AA  A$lcc1725 |    000005AC  A$lcc1725 |    000005AD  A$lcc1725
     000005AE  A$lcc1725 |    000005B0  A$lcc1725 |    000005B0  C$main.c$
     000005B3  A$lcc1725 |    000005B4  A$lcc1725 |    000005B5  A$lcc1725
     000005B6  A$lcc1725 |    000005B6  C$main.c$ |    000005B9  A$lcc1725
     000005BB  A$lcc1725 |    000005BD  A$lcc1725 |    000005BD  C$main.c$
     000005C0  A$lcc1725 |    000005C1  A$lcc1725 |    000005C2  A$lcc1725
     000005C3  A$lcc1725 |    000005C4  A$lcc1725 |    000005C7  A$lcc1725
     000005C8  A$lcc1725 |    000005C9  A$lcc1725 |    000005CA  A$lcc1725
     000005CD  A$lcc1725 |    000005CF  A$lcc1725 |    000005D0  A$lcc1725
     000005D3  A$lcc1725 |    000005D4  A$lcc1725 |    000005D5  A$lcc1725
     000005D6  A$lcc1725 |    000005D7  A$lcc1725 |    000005DA  A$lcc1725
     000005DB  A$lcc1725 |    000005DC  A$lcc1725 |    000005DD  A$lcc1725
     000005E0  A$lcc1725 |    000005E2  A$lcc1725 |    000005E4  A$lcc1725
     000005E5  A$lcc1725 |    000005E6  A$lcc1725 |    000005E7  A$lcc1725
     000005E8  A$lcc1725 |    000005EA  A$lcc1725 |    000005EB  A$lcc1725
     000005EE  A$lcc1725 |    000005F0  A$lcc1725 |    000005F0  C$main.c$
     000005F0  C$main.c$ |    000005F3  A$lcc1725 |    000005F5  A$lcc1725
     000005F7  A$lcc1725 |    000005F7  C$main.c$ |    000005FA  A$lcc1725
     000005FB  A$lcc1725 |    000005FC  A$lcc1725 |    000005FD  A$lcc1725
     000005FD  C$main.c$ |    00000600  A$lcc1725 |    00000601  A$lcc1725
     00000602  A$lcc1725 |    00000603  A$lcc1725 |    00000603  C$main.c$
     00000606  A$lcc1725 |    00000607  A$lcc1725 |    00000608  A$lcc1725
     00000609  A$lcc1725 |    00000609  C$main.c$ |    0000060C  A$lcc1725
     0000060D  A$lcc1725 |    0000060E  A$lcc1725 |    0000060F  A$lcc1725
     0000060F  C$main.c$ |    00000612  A$lcc1725 |    00000614  A$lcc1725
     00000616  A$lcc1725 |    00000616  C$main.c$ |    00000619  A$lcc1725
     0000061A  A$lcc1725 |    0000061B  A$lcc1725 |    0000061C  A$lcc1725
ASxxxx Linker V03.00 + NoICE + sdld,  page 8.
Hexadecimal  [32-Bits]

Area                       Addr        Size        Decimal Bytes (Attributes)
--------------------       ----        ----        ------- ----- ------------
_CODE                  00000200    00001A82 =        6786. bytes (REL,CON)

        Value  Global            Value  Global            Value  Global    
        -----  ------            -----  ------            -----  ------    
     0000061D  A$lcc1725 |    0000061E  A$lcc1725 |    0000061F  A$lcc1725
     00000620  A$lcc1725 |    00000621  A$lcc1725 |    00000622  A$lcc1725
     00000623  A$lcc1725 |    00000624  A$lcc1725 |    00000625  A$lcc1725
     00000628  A$lcc1725 |    00000629  A$lcc1725 |    0000062A  A$lcc1725
     0000062D  A$lcc1725 |    0000062E  A$lcc1725 |    0000062F  A$lcc1725
     00000630  A$lcc1725 |    00000631  A$lcc1725 |    00000634  A$lcc1725
     00000635  A$lcc1725 |    00000636  A$lcc1725 |    00000637  A$lcc1725
     0000063A  A$lcc1725 |    0000063C  A$lcc1725 |    0000063D  A$lcc1725
     0000063E  A$lcc1725 |    0000063F  A$lcc1725 |    00000640  A$lcc1725
     00000641  A$lcc1725 |    00000642  A$lcc1725 |    00000643  A$lcc1725
     00000644  A$lcc1725 |    00000647  A$lcc1725 |    00000649  A$lcc1725
     00000649  C$main.c$ |    00000649  C$main.c$ |    0000064C  A$lcc1725
     0000064D  A$lcc1725 |    0000064F  A$lcc1725 |    00000652  A$lcc1725
     00000653  A$lcc1725 |    00000654  A$lcc1725 |    00000657  A$lcc1725
     00000659  A$lcc1725 |    0000065A  A$lcc1725 |    0000065B  A$lcc1725
     0000065D  A$lcc1725 |    0000065D  C$main.c$ |    00000660  A$lcc1725
     00000661  A$lcc1725 |    00000662  A$lcc1725 |    00000663  A$lcc1725
     00000663  C$main.c$ |    00000666  A$lcc1725 |    00000667  A$lcc1725
     00000668  A$lcc1725 |    00000669  A$lcc1725 |    00000669  C$main.c$
     0000066C  A$lcc1725 |    0000066D  A$lcc1725 |    0000066E  A$lcc1725
     0000066E  C$main.c$ |    0000066E  XG$scroll |    0000066F  A$lcc1725
     0000066F  C$main.c$ |    0000066F  G$win_che |    0000066F  _win_chec
     00000671  A$lcc1725 |    00000671  C$main.c$ |    00000673  A$lcc1725
     00000674  A$lcc1725 |    00000676  A$lcc1725 |    00000677  A$lcc1725
     00000678  A$lcc1725 |    00000679  A$lcc1725 |    0000067A  A$lcc1725
     0000067B  A$lcc1725 |    0000067C  A$lcc1725 |    0000067F  A$lcc1725
     00000680  A$lcc1725 |    00000681  A$lcc1725 |    00000682  A$lcc1725
     00000684  A$lcc1725 |    00000685  A$lcc1725 |    00000686  A$lcc1725
     00000687  A$lcc1725 |    00000689  A$lcc1725 |    0000068A  A$lcc1725
     0000068B  A$lcc1725 |    0000068C  A$lcc1725 |    0000068D  A$lcc1725
     0000068F  A$lcc1725 |    00000691  A$lcc1725 |    00000692  A$lcc1725
     00000693  A$lcc1725 |    00000694  A$lcc1725 |    00000695  A$lcc1725
     00000696  A$lcc1725 |    00000697  A$lcc1725 |    0000069A  A$lcc1725
     0000069B  A$lcc1725 |    0000069C  A$lcc1725 |    0000069D  A$lcc1725
     0000069E  A$lcc1725 |    0000069F  A$lcc1725 |    000006A0  A$lcc1725
     000006A2  A$lcc1725 |    000006A4  A$lcc1725 |    000006A5  A$lcc1725
     000006A7  A$lcc1725 |    000006A8  A$lcc1725 |    000006AA  A$lcc1725
     000006AB  A$lcc1725 |    000006AD  A$lcc1725 |    000006AE  A$lcc1725
     000006B0  A$lcc1725 |    000006B1  A$lcc1725 |    000006B3  A$lcc1725
     000006B3  C$main.c$ |    000006B5  A$lcc1725 |    000006B6  A$lcc1725
     000006B8  A$lcc1725 |    000006B9  A$lcc1725 |    000006BA  A$lcc1725
     000006BB  A$lcc1725 |    000006BC  A$lcc1725 |    000006BD  A$lcc1725
     000006BE  A$lcc1725 |    000006C1  A$lcc1725 |    000006C2  A$lcc1725
     000006C3  A$lcc1725 |    000006C4  A$lcc1725 |    000006C6  A$lcc1725
     000006C7  A$lcc1725 |    000006C8  A$lcc1725 |    000006C9  A$lcc1725
     000006CB  A$lcc1725 |    000006CC  A$lcc1725 |    000006CD  A$lcc1725
     000006CE  A$lcc1725 |    000006CF  A$lcc1725 |    000006D1  A$lcc1725
     000006D3  A$lcc1725 |    000006D5  A$lcc1725 |    000006D6  A$lcc1725
     000006D7  A$lcc1725 |    000006D8  A$lcc1725 |    000006DB  A$lcc1725
     000006DC  A$lcc1725 |    000006DD  A$lcc1725 |    000006DE  A$lcc1725
     000006E0  A$lcc1725 |    000006E2  A$lcc1725 |    000006E4  A$lcc1725
ASxxxx Linker V03.00 + NoICE + sdld,  page 9.
Hexadecimal  [32-Bits]

Area                       Addr        Size        Decimal Bytes (Attributes)
--------------------       ----        ----        ------- ----- ------------
_CODE                  00000200    00001A82 =        6786. bytes (REL,CON)

        Value  Global            Value  Global            Value  Global    
        -----  ------            -----  ------            -----  ------    
     000006E6  A$lcc1725 |    000006E8  A$lcc1725 |    000006EA  A$lcc1725
     000006EA  C$main.c$ |    000006EC  A$lcc1725 |    000006ED  A$lcc1725
     000006EE  A$lcc1725 |    000006EF  A$lcc1725 |    000006F2  A$lcc1725
     000006F3  A$lcc1725 |    000006F4  A$lcc1725 |    000006F5  A$lcc1725
     000006F7  A$lcc1725 |    000006F8  A$lcc1725 |    000006F9  A$lcc1725
     000006FA  A$lcc1725 |    000006FC  A$lcc1725 |    000006FD  A$lcc1725
     000006FE  A$lcc1725 |    000006FF  A$lcc1725 |    00000700  A$lcc1725
     00000701  A$lcc1725 |    00000702  A$lcc1725 |    00000703  A$lcc1725
     00000704  A$lcc1725 |    00000706  A$lcc1725 |    00000708  A$lcc1725
     00000709  A$lcc1725 |    0000070A  A$lcc1725 |    0000070B  A$lcc1725
     0000070C  A$lcc1725 |    0000070D  A$lcc1725 |    0000070E  A$lcc1725
     00000711  A$lcc1725 |    00000712  A$lcc1725 |    00000713  A$lcc1725
     00000714  A$lcc1725 |    00000716  A$lcc1725 |    00000717  A$lcc1725
     00000718  A$lcc1725 |    00000719  A$lcc1725 |    0000071B  A$lcc1725
     0000071C  A$lcc1725 |    0000071E  A$lcc1725 |    0000071F  A$lcc1725
     00000720  A$lcc1725 |    00000721  A$lcc1725 |    00000723  A$lcc1725
     00000725  A$lcc1725 |    00000727  A$lcc1725 |    00000729  A$lcc1725
     0000072B  A$lcc1725 |    0000072D  A$lcc1725 |    0000072D  C$main.c$
     0000072F  A$lcc1725 |    00000730  A$lcc1725 |    00000732  A$lcc1725
     00000733  A$lcc1725 |    00000735  A$lcc1725 |    00000736  A$lcc1725
     00000738  A$lcc1725 |    00000739  A$lcc1725 |    0000073B  A$lcc1725
     0000073D  A$lcc1725 |    0000073F  A$lcc1725 |    00000740  A$lcc1725
     00000742  A$lcc1725 |    00000743  A$lcc1725 |    00000745  A$lcc1725
     00000746  A$lcc1725 |    00000747  A$lcc1725 |    00000748  A$lcc1725
     00000749  A$lcc1725 |    0000074A  A$lcc1725 |    0000074B  A$lcc1725
     0000074B  C$main.c$ |    0000074D  A$lcc1725 |    0000074E  A$lcc1725
     0000074F  A$lcc1725 |    00000750  A$lcc1725 |    00000751  A$lcc1725
     00000752  A$lcc1725 |    00000753  A$lcc1725 |    00000753  C$main.c$
     00000756  A$lcc1725 |    00000757  A$lcc1725 |    00000758  A$lcc1725
     0000075B  A$lcc1725 |    0000075C  A$lcc1725 |    0000075D  A$lcc1725
     0000075E  A$lcc1725 |    00000760  A$lcc1725 |    00000761  A$lcc1725
     00000762  A$lcc1725 |    00000764  A$lcc1725 |    00000764  C$main.c$
     00000767  A$lcc1725 |    00000768  A$lcc1725 |    0000076B  A$lcc1725
     0000076C  A$lcc1725 |    0000076F  A$lcc1725 |    00000770  A$lcc1725
     00000773  A$lcc1725 |    00000775  A$lcc1725 |    00000775  C$main.c$
     00000778  A$lcc1725 |    0000077B  A$lcc1725 |    0000077B  C$main.c$
     0000077C  A$lcc1725 |    0000077E  A$lcc1725 |    00000780  A$lcc1725
     00000781  A$lcc1725 |    00000783  A$lcc1725 |    00000785  A$lcc1725
     00000785  C$main.c$ |    00000788  A$lcc1725 |    00000789  A$lcc1725
     0000078C  A$lcc1725 |    0000078D  A$lcc1725 |    00000790  A$lcc1725
     00000791  A$lcc1725 |    00000794  A$lcc1725 |    00000796  A$lcc1725
     00000796  C$main.c$ |    00000799  A$lcc1725 |    0000079B  A$lcc1725
     0000079B  C$main.c$ |    0000079C  A$lcc1725 |    0000079E  A$lcc1725
     000007A0  A$lcc1725 |    000007A1  A$lcc1725 |    000007A3  A$lcc1725
     000007A5  A$lcc1725 |    000007A5  C$main.c$ |    000007A8  A$lcc1725
     000007A9  A$lcc1725 |    000007AC  A$lcc1725 |    000007AD  A$lcc1725
     000007B0  A$lcc1725 |    000007B1  A$lcc1725 |    000007B4  A$lcc1725
     000007B6  A$lcc1725 |    000007B6  C$main.c$ |    000007B9  A$lcc1725
     000007BB  A$lcc1725 |    000007BB  C$main.c$ |    000007BC  A$lcc1725
     000007BE  A$lcc1725 |    000007C0  A$lcc1725 |    000007C1  A$lcc1725
     000007C3  A$lcc1725 |    000007C5  A$lcc1725 |    000007C5  C$main.c$
ASxxxx Linker V03.00 + NoICE + sdld,  page 10.
Hexadecimal  [32-Bits]

Area                       Addr        Size        Decimal Bytes (Attributes)
--------------------       ----        ----        ------- ----- ------------
_CODE                  00000200    00001A82 =        6786. bytes (REL,CON)

        Value  Global            Value  Global            Value  Global    
        -----  ------            -----  ------            -----  ------    
     000007C8  A$lcc1725 |    000007C9  A$lcc1725 |    000007CC  A$lcc1725
     000007CD  A$lcc1725 |    000007D0  A$lcc1725 |    000007D1  A$lcc1725
     000007D4  A$lcc1725 |    000007D6  A$lcc1725 |    000007D6  C$main.c$
     000007D9  A$lcc1725 |    000007DB  A$lcc1725 |    000007DB  C$main.c$
     000007DC  A$lcc1725 |    000007DE  A$lcc1725 |    000007E0  A$lcc1725
     000007E1  A$lcc1725 |    000007E3  A$lcc1725 |    000007E5  A$lcc1725
     000007E5  C$main.c$ |    000007E8  A$lcc1725 |    000007E9  A$lcc1725
     000007EC  A$lcc1725 |    000007ED  A$lcc1725 |    000007F0  A$lcc1725
     000007F1  A$lcc1725 |    000007F4  A$lcc1725 |    000007F6  A$lcc1725
     000007F6  C$main.c$ |    000007F9  A$lcc1725 |    000007FB  A$lcc1725
     000007FB  C$main.c$ |    000007FE  A$lcc1725 |    00000800  A$lcc1725
     00000800  C$main.c$ |    00000800  XG$win_ch |    00000801  A$lcc1725
     00000801  C$main.c$ |    00000801  G$collide |    00000801  _collide_
     00000803  A$lcc1725 |    00000803  C$main.c$ |    00000806  A$lcc1725
     00000807  A$lcc1725 |    00000808  A$lcc1725 |    00000809  A$lcc1725
     0000080A  A$lcc1725 |    0000080C  A$lcc1725 |    0000080D  A$lcc1725
     0000080E  A$lcc1725 |    0000080F  A$lcc1725 |    00000810  A$lcc1725
     00000812  A$lcc1725 |    00000814  A$lcc1725 |    00000814  C$main.c$
     00000816  A$lcc1725 |    00000818  A$lcc1725 |    00000818  C$main.c$
     0000081A  A$lcc1725 |    0000081C  A$lcc1725 |    0000081E  A$lcc1725
     0000081E  C$main.c$ |    00000820  A$lcc1725 |    00000822  A$lcc1725
     00000822  C$main.c$ |    00000824  A$lcc1725 |    00000826  A$lcc1725
     00000826  C$main.c$ |    00000828  A$lcc1725 |    00000829  A$lcc1725
     0000082B  A$lcc1725 |    0000082C  A$lcc1725 |    0000082D  A$lcc1725
     0000082E  A$lcc1725 |    0000082F  A$lcc1725 |    00000830  A$lcc1725
     00000831  A$lcc1725 |    00000834  A$lcc1725 |    00000835  A$lcc1725
     00000836  A$lcc1725 |    00000837  A$lcc1725 |    00000839  A$lcc1725
     0000083A  A$lcc1725 |    0000083B  A$lcc1725 |    0000083C  A$lcc1725
     0000083E  A$lcc1725 |    0000083F  A$lcc1725 |    00000840  A$lcc1725
     00000841  A$lcc1725 |    00000842  A$lcc1725 |    00000844  A$lcc1725
     00000846  A$lcc1725 |    00000847  A$lcc1725 |    00000848  A$lcc1725
     00000849  A$lcc1725 |    0000084A  A$lcc1725 |    0000084B  A$lcc1725
     0000084C  A$lcc1725 |    0000084F  A$lcc1725 |    00000850  A$lcc1725
     00000851  A$lcc1725 |    00000852  A$lcc1725 |    00000854  A$lcc1725
     00000856  A$lcc1725 |    00000858  A$lcc1725 |    0000085A  A$lcc1725
     0000085C  A$lcc1725 |    0000085E  A$lcc1725 |    0000085E  C$main.c$
     00000861  A$lcc1725 |    00000862  A$lcc1725 |    00000863  A$lcc1725
     00000864  A$lcc1725 |    00000865  A$lcc1725 |    00000866  A$lcc1725
     00000867  A$lcc1725 |    00000868  A$lcc1725 |    00000869  A$lcc1725
     00000869  C$main.c$ |    0000086A  A$lcc1725 |    0000086C  A$lcc1725
     0000086D  A$lcc1725 |    0000086E  A$lcc1725 |    00000870  A$lcc1725
     00000873  A$lcc1725 |    00000875  A$lcc1725 |    00000876  A$lcc1725
     00000876  C$main.c$ |    00000878  A$lcc1725 |    00000879  A$lcc1725
     0000087B  A$lcc1725 |    0000087C  A$lcc1725 |    0000087E  A$lcc1725
     00000880  A$lcc1725 |    00000881  A$lcc1725 |    00000883  A$lcc1725
     00000885  A$lcc1725 |    00000886  A$lcc1725 |    00000887  A$lcc1725
     00000888  A$lcc1725 |    00000889  A$lcc1725 |    0000088A  A$lcc1725
     0000088B  A$lcc1725 |    0000088D  A$lcc1725 |    0000088E  A$lcc1725
     00000890  A$lcc1725 |    00000891  A$lcc1725 |    00000892  A$lcc1725
     00000893  A$lcc1725 |    00000894  A$lcc1725 |    00000895  A$lcc1725
     00000896  A$lcc1725 |    00000897  A$lcc1725 |    00000898  A$lcc1725
ASxxxx Linker V03.00 + NoICE + sdld,  page 11.
Hexadecimal  [32-Bits]

Area                       Addr        Size        Decimal Bytes (Attributes)
--------------------       ----        ----        ------- ----- ------------
_CODE                  00000200    00001A82 =        6786. bytes (REL,CON)

        Value  Global            Value  Global            Value  Global    
        -----  ------            -----  ------            -----  ------    
     00000899  A$lcc1725 |    0000089A  A$lcc1725 |    0000089C  A$lcc1725
     0000089D  A$lcc1725 |    0000089F  A$lcc1725 |    000008A0  A$lcc1725
     000008A2  A$lcc1725 |    000008A3  A$lcc1725 |    000008A5  A$lcc1725
     000008A6  A$lcc1725 |    000008A8  A$lcc1725 |    000008AA  A$lcc1725
     000008AC  A$lcc1725 |    000008AD  A$lcc1725 |    000008AE  A$lcc1725
     000008B1  A$lcc1725 |    000008B2  A$lcc1725 |    000008B3  A$lcc1725
     000008B4  A$lcc1725 |    000008B6  A$lcc1725 |    000008B7  A$lcc1725
     000008B8  A$lcc1725 |    000008B9  A$lcc1725 |    000008BB  A$lcc1725
     000008BC  A$lcc1725 |    000008BE  A$lcc1725 |    000008C0  A$lcc1725
     000008C1  A$lcc1725 |    000008C3  A$lcc1725 |    000008C4  A$lcc1725
     000008C6  A$lcc1725 |    000008C7  A$lcc1725 |    000008C9  A$lcc1725
     000008CA  A$lcc1725 |    000008CC  A$lcc1725 |    000008CD  A$lcc1725
     000008CF  A$lcc1725 |    000008CF  C$main.c$ |    000008D1  A$lcc1725
     000008D2  A$lcc1725 |    000008D3  A$lcc1725 |    000008D5  A$lcc1725
     000008D6  A$lcc1725 |    000008D7  A$lcc1725 |    000008D8  A$lcc1725
     000008D9  A$lcc1725 |    000008DA  A$lcc1725 |    000008DB  A$lcc1725
     000008DD  A$lcc1725 |    000008DE  A$lcc1725 |    000008DF  A$lcc1725
     000008E0  A$lcc1725 |    000008E1  A$lcc1725 |    000008E2  A$lcc1725
     000008E3  A$lcc1725 |    000008E5  A$lcc1725 |    000008E6  A$lcc1725
     000008E7  A$lcc1725 |    000008E8  A$lcc1725 |    000008EA  A$lcc1725
     000008EB  A$lcc1725 |    000008EC  A$lcc1725 |    000008ED  A$lcc1725
     000008EE  A$lcc1725 |    000008EF  A$lcc1725 |    000008F0  A$lcc1725
     000008F1  A$lcc1725 |    000008F2  A$lcc1725 |    000008F4  A$lcc1725
     000008F6  A$lcc1725 |    000008F7  A$lcc1725 |    000008F8  A$lcc1725
     000008F9  A$lcc1725 |    000008FA  A$lcc1725 |    000008FD  A$lcc1725
     000008FE  A$lcc1725 |    000008FF  A$lcc1725 |    00000900  A$lcc1725
     00000902  A$lcc1725 |    00000903  A$lcc1725 |    00000904  A$lcc1725
     00000905  A$lcc1725 |    00000907  A$lcc1725 |    00000908  A$lcc1725
     0000090A  A$lcc1725 |    0000090B  A$lcc1725 |    0000090C  A$lcc1725
     0000090C  C$main.c$ |    0000090D  A$lcc1725 |    0000090E  A$lcc1725
     00000910  A$lcc1725 |    00000912  A$lcc1725 |    00000914  A$lcc1725
     00000916  A$lcc1725 |    00000918  A$lcc1725 |    0000091A  A$lcc1725
     0000091B  A$lcc1725 |    0000091C  A$lcc1725 |    0000091E  A$lcc1725
     0000091F  A$lcc1725 |    00000920  A$lcc1725 |    00000921  A$lcc1725
     00000922  A$lcc1725 |    00000923  A$lcc1725 |    00000926  A$lcc1725
     00000927  A$lcc1725 |    00000928  A$lcc1725 |    00000929  A$lcc1725
     0000092B  A$lcc1725 |    0000092C  A$lcc1725 |    0000092E  A$lcc1725
     0000092E  C$main.c$ |    0000092F  A$lcc1725 |    00000931  A$lcc1725
     00000932  A$lcc1725 |    00000933  A$lcc1725 |    00000934  A$lcc1725
     00000935  A$lcc1725 |    00000938  A$lcc1725 |    00000939  A$lcc1725
     0000093B  A$lcc1725 |    0000093C  A$lcc1725 |    0000093D  A$lcc1725
     0000093F  A$lcc1725 |    0000093F  C$main.c$ |    00000942  A$lcc1725
     00000943  A$lcc1725 |    00000944  A$lcc1725 |    00000945  A$lcc1725
     00000946  A$lcc1725 |    00000948  A$lcc1725 |    00000949  A$lcc1725
     0000094A  A$lcc1725 |    0000094B  A$lcc1725 |    0000094C  A$lcc1725
     0000094E  A$lcc1725 |    00000950  A$lcc1725 |    00000950  C$main.c$
     00000952  A$lcc1725 |    00000953  A$lcc1725 |    00000955  A$lcc1725
     00000956  A$lcc1725 |    00000958  A$lcc1725 |    0000095A  A$lcc1725
     0000095B  A$lcc1725 |    0000095D  A$lcc1725 |    0000095E  A$lcc1725
     0000095F  A$lcc1725 |    00000961  A$lcc1725 |    00000962  A$lcc1725
     00000964  A$lcc1725 |    00000966  A$lcc1725 |    00000967  A$lcc1725
ASxxxx Linker V03.00 + NoICE + sdld,  page 12.
Hexadecimal  [32-Bits]

Area                       Addr        Size        Decimal Bytes (Attributes)
--------------------       ----        ----        ------- ----- ------------
_CODE                  00000200    00001A82 =        6786. bytes (REL,CON)

        Value  Global            Value  Global            Value  Global    
        -----  ------            -----  ------            -----  ------    
     00000969  A$lcc1725 |    0000096A  A$lcc1725 |    0000096C  A$lcc1725
     0000096F  A$lcc1725 |    00000970  A$lcc1725 |    00000972  A$lcc1725
     00000973  A$lcc1725 |    00000974  A$lcc1725 |    00000976  A$lcc1725
     00000977  A$lcc1725 |    0000097A  A$lcc1725 |    0000097A  C$main.c$
     0000097D  A$lcc1725 |    00000980  A$lcc1725 |    00000980  C$main.c$
     00000980  C$main.c$ |    00000981  A$lcc1725 |    00000983  A$lcc1725
     00000984  A$lcc1725 |    00000986  A$lcc1725 |    00000987  A$lcc1725
     00000989  A$lcc1725 |    0000098A  A$lcc1725 |    0000098C  A$lcc1725
     0000098C  C$main.c$ |    0000098E  A$lcc1725 |    0000098F  A$lcc1725
     00000991  A$lcc1725 |    00000992  A$lcc1725 |    00000994  A$lcc1725
     00000996  A$lcc1725 |    00000997  A$lcc1725 |    00000998  A$lcc1725
     0000099A  A$lcc1725 |    0000099C  A$lcc1725 |    0000099D  A$lcc1725
     0000099F  A$lcc1725 |    000009A0  A$lcc1725 |    000009A1  A$lcc1725
     000009A3  A$lcc1725 |    000009A4  A$lcc1725 |    000009A6  A$lcc1725
     000009A8  A$lcc1725 |    000009AA  A$lcc1725 |    000009AC  A$lcc1725
     000009AE  A$lcc1725 |    000009AF  A$lcc1725 |    000009B0  A$lcc1725
     000009B2  A$lcc1725 |    000009B3  A$lcc1725 |    000009B5  A$lcc1725
     000009B5  C$main.c$ |    000009B8  A$lcc1725 |    000009BA  A$lcc1725
     000009BD  A$lcc1725 |    000009BD  C$main.c$ |    000009C0  A$lcc1725
     000009C1  A$lcc1725 |    000009C4  A$lcc1725 |    000009C4  C$main.c$
     000009C7  A$lcc1725 |    000009CA  A$lcc1725 |    000009CA  C$main.c$
     000009CC  A$lcc1725 |    000009CD  A$lcc1725 |    000009CF  A$lcc1725
     000009D0  A$lcc1725 |    000009D2  A$lcc1725 |    000009D4  A$lcc1725
     000009D5  A$lcc1725 |    000009D6  A$lcc1725 |    000009D8  A$lcc1725
     000009D9  A$lcc1725 |    000009DA  A$lcc1725 |    000009DC  A$lcc1725
     000009DD  A$lcc1725 |    000009DF  A$lcc1725 |    000009E0  A$lcc1725
     000009E2  A$lcc1725 |    000009E3  A$lcc1725 |    000009E4  A$lcc1725
     000009E6  A$lcc1725 |    000009E7  A$lcc1725 |    000009E8  A$lcc1725
     000009EA  A$lcc1725 |    000009EB  A$lcc1725 |    000009ED  A$lcc1725
     000009EE  A$lcc1725 |    000009EF  A$lcc1725 |    000009EF  C$main.c$
     000009F0  A$lcc1725 |    000009F2  A$lcc1725 |    000009F3  A$lcc1725
     000009F5  A$lcc1725 |    000009F5  C$main.c$ |    000009F7  A$lcc1725
     000009F9  A$lcc1725 |    000009FB  A$lcc1725 |    000009FD  A$lcc1725
     000009FF  A$lcc1725 |    00000A01  A$lcc1725 |    00000A03  A$lcc1725
     00000A05  A$lcc1725 |    00000A07  A$lcc1725 |    00000A07  C$main.c$
     00000A0A  A$lcc1725 |    00000A0C  A$lcc1725 |    00000A0E  A$lcc1725
     00000A0E  C$main.c$ |    00000A11  A$lcc1725 |    00000A12  A$lcc1725
     00000A14  A$lcc1725 |    00000A14  C$main.c$ |    00000A17  A$lcc1725
     00000A19  A$lcc1725 |    00000A19  C$main.c$ |    00000A1A  A$lcc1725
     00000A1C  A$lcc1725 |    00000A1D  A$lcc1725 |    00000A1F  A$lcc1725
     00000A1F  C$main.c$ |    00000A21  A$lcc1725 |    00000A23  A$lcc1725
     00000A25  A$lcc1725 |    00000A27  A$lcc1725 |    00000A29  A$lcc1725
     00000A2B  A$lcc1725 |    00000A2D  A$lcc1725 |    00000A2F  A$lcc1725
     00000A31  A$lcc1725 |    00000A31  C$main.c$ |    00000A34  A$lcc1725
     00000A36  A$lcc1725 |    00000A38  A$lcc1725 |    00000A38  C$main.c$
     00000A3B  A$lcc1725 |    00000A3C  A$lcc1725 |    00000A3E  A$lcc1725
     00000A3E  C$main.c$ |    00000A41  A$lcc1725 |    00000A43  A$lcc1725
     00000A43  C$main.c$ |    00000A44  A$lcc1725 |    00000A46  A$lcc1725
     00000A47  A$lcc1725 |    00000A49  A$lcc1725 |    00000A49  C$main.c$
     00000A4B  A$lcc1725 |    00000A4D  A$lcc1725 |    00000A4F  A$lcc1725
     00000A51  A$lcc1725 |    00000A53  A$lcc1725 |    00000A55  A$lcc1725
ASxxxx Linker V03.00 + NoICE + sdld,  page 13.
Hexadecimal  [32-Bits]

Area                       Addr        Size        Decimal Bytes (Attributes)
--------------------       ----        ----        ------- ----- ------------
_CODE                  00000200    00001A82 =        6786. bytes (REL,CON)

        Value  Global            Value  Global            Value  Global    
        -----  ------            -----  ------            -----  ------    
     00000A57  A$lcc1725 |    00000A59  A$lcc1725 |    00000A5B  A$lcc1725
     00000A5B  C$main.c$ |    00000A5E  A$lcc1725 |    00000A60  A$lcc1725
     00000A62  A$lcc1725 |    00000A62  C$main.c$ |    00000A65  A$lcc1725
     00000A66  A$lcc1725 |    00000A68  A$lcc1725 |    00000A68  C$main.c$
     00000A6B  A$lcc1725 |    00000A6D  A$lcc1725 |    00000A6D  C$main.c$
     00000A6E  A$lcc1725 |    00000A70  A$lcc1725 |    00000A71  A$lcc1725
     00000A73  A$lcc1725 |    00000A73  C$main.c$ |    00000A76  A$lcc1725
     00000A77  A$lcc1725 |    00000A78  A$lcc1725 |    00000A79  A$lcc1725
     00000A7A  A$lcc1725 |    00000A7B  A$lcc1725 |    00000A7E  A$lcc1725
     00000A7F  A$lcc1725 |    00000A81  A$lcc1725 |    00000A81  C$main.c$
     00000A81  XG$collid |    00000A82  A$lcc1725 |    00000A82  C$main.c$
     00000A82  C$main.c$ |    00000A82  G$animate |    00000A82  _animate_
     00000A85  A$lcc1725 |    00000A86  A$lcc1725 |    00000A86  C$main.c$
     00000A89  A$lcc1725 |    00000A8A  A$lcc1725 |    00000A8A  C$main.c$
     00000A8C  A$lcc1725 |    00000A8C  C$main.c$ |    00000A8F  A$lcc1725
     00000A91  A$lcc1725 |    00000A93  A$lcc1725 |    00000A93  C$main.c$
     00000A96  A$lcc1725 |    00000A99  A$lcc1725 |    00000A9A  A$lcc1725
     00000A9B  A$lcc1725 |    00000A9C  A$lcc1725 |    00000A9E  A$lcc1725
     00000A9F  A$lcc1725 |    00000AA1  A$lcc1725 |    00000AA2  A$lcc1725
     00000AA3  A$lcc1725 |    00000AA3  C$main.c$ |    00000AA5  A$lcc1725
     00000AA6  A$lcc1725 |    00000AA8  A$lcc1725 |    00000AAA  A$lcc1725
     00000AAA  C$main.c$ |    00000AAC  A$lcc1725 |    00000AAD  A$lcc1725
     00000AAE  A$lcc1725 |    00000AAF  A$lcc1725 |    00000AB0  A$lcc1725
     00000AB3  A$lcc1725 |    00000AB4  A$lcc1725 |    00000AB5  A$lcc1725
     00000AB6  A$lcc1725 |    00000AB6  C$main.c$ |    00000AB7  A$lcc1725
     00000AB9  A$lcc1725 |    00000ABA  A$lcc1725 |    00000ABB  A$lcc1725
     00000ABC  A$lcc1725 |    00000ABD  A$lcc1725 |    00000AC0  A$lcc1725
     00000AC1  A$lcc1725 |    00000AC2  A$lcc1725 |    00000AC2  C$main.c$
     00000AC3  A$lcc1725 |    00000AC5  A$lcc1725 |    00000AC7  A$lcc1725
     00000AC9  A$lcc1725 |    00000ACA  A$lcc1725 |    00000ACC  A$lcc1725
     00000ACC  C$main.c$ |    00000ACD  A$lcc1725 |    00000ACE  A$lcc1725
     00000AD0  A$lcc1725 |    00000AD1  A$lcc1725 |    00000AD2  A$lcc1725
     00000AD3  A$lcc1725 |    00000AD6  A$lcc1725 |    00000AD8  A$lcc1725
     00000AD9  A$lcc1725 |    00000AD9  C$main.c$ |    00000ADA  A$lcc1725
     00000ADC  A$lcc1725 |    00000ADE  A$lcc1725 |    00000AE0  A$lcc1725
     00000AE1  A$lcc1725 |    00000AE3  A$lcc1725 |    00000AE3  C$main.c$
     00000AE4  A$lcc1725 |    00000AE6  A$lcc1725 |    00000AE7  A$lcc1725
     00000AE8  A$lcc1725 |    00000AE9  A$lcc1725 |    00000AEC  A$lcc1725
     00000AEE  A$lcc1725 |    00000AEE  C$main.c$ |    00000AEF  A$lcc1725
     00000AF1  A$lcc1725 |    00000AF1  C$main.c$ |    00000AF4  A$lcc1725
     00000AF6  A$lcc1725 |    00000AF8  A$lcc1725 |    00000AFB  A$lcc1725
     00000AFC  A$lcc1725 |    00000AFD  A$lcc1725 |    00000AFF  A$lcc1725
     00000AFF  C$main.c$ |    00000B01  A$lcc1725 |    00000B01  C$main.c$
     00000B04  A$lcc1725 |    00000B05  A$lcc1725 |    00000B06  A$lcc1725
     00000B06  C$main.c$ |    00000B09  A$lcc1725 |    00000B0B  A$lcc1725
     00000B0C  A$lcc1725 |    00000B0C  C$main.c$ |    00000B0F  A$lcc1725
     00000B10  A$lcc1725 |    00000B11  A$lcc1725 |    00000B13  A$lcc1725
     00000B14  A$lcc1725 |    00000B17  A$lcc1725 |    00000B18  A$lcc1725
     00000B19  A$lcc1725 |    00000B1C  A$lcc1725 |    00000B1E  A$lcc1725
     00000B1F  A$lcc1725 |    00000B22  A$lcc1725 |    00000B23  A$lcc1725
     00000B24  A$lcc1725 |    00000B24  C$main.c$ |    00000B25  A$lcc1725
ASxxxx Linker V03.00 + NoICE + sdld,  page 14.
Hexadecimal  [32-Bits]

Area                       Addr        Size        Decimal Bytes (Attributes)
--------------------       ----        ----        ------- ----- ------------
_CODE                  00000200    00001A82 =        6786. bytes (REL,CON)

        Value  Global            Value  Global            Value  Global    
        -----  ------            -----  ------            -----  ------    
     00000B26  A$lcc1725 |    00000B28  A$lcc1725 |    00000B28  C$main.c$
     00000B2B  A$lcc1725 |    00000B2C  A$lcc1725 |    00000B2D  A$lcc1725
     00000B2F  A$lcc1725 |    00000B2F  C$main.c$ |    00000B30  A$lcc1725
     00000B31  A$lcc1725 |    00000B32  A$lcc1725 |    00000B33  A$lcc1725
     00000B35  A$lcc1725 |    00000B36  A$lcc1725 |    00000B37  A$lcc1725
     00000B38  A$lcc1725 |    00000B39  A$lcc1725 |    00000B3C  A$lcc1725
     00000B3E  A$lcc1725 |    00000B3F  A$lcc1725 |    00000B3F  C$main.c$
     00000B40  A$lcc1725 |    00000B42  A$lcc1725 |    00000B42  C$main.c$
     00000B45  A$lcc1725 |    00000B46  A$lcc1725 |    00000B47  A$lcc1725
     00000B49  A$lcc1725 |    00000B49  C$main.c$ |    00000B4A  A$lcc1725
     00000B4B  A$lcc1725 |    00000B4C  A$lcc1725 |    00000B4D  A$lcc1725
     00000B4F  A$lcc1725 |    00000B50  A$lcc1725 |    00000B51  A$lcc1725
     00000B52  A$lcc1725 |    00000B53  A$lcc1725 |    00000B56  A$lcc1725
     00000B58  A$lcc1725 |    00000B59  A$lcc1725 |    00000B59  C$main.c$
     00000B5A  A$lcc1725 |    00000B5C  A$lcc1725 |    00000B5C  C$main.c$
     00000B5F  A$lcc1725 |    00000B61  A$lcc1725 |    00000B61  C$main.c$
     00000B64  A$lcc1725 |    00000B66  A$lcc1725 |    00000B67  A$lcc1725
     00000B67  C$main.c$ |    00000B6A  A$lcc1725 |    00000B6B  A$lcc1725
     00000B6C  A$lcc1725 |    00000B6E  A$lcc1725 |    00000B6E  C$main.c$
     00000B6F  A$lcc1725 |    00000B70  A$lcc1725 |    00000B71  A$lcc1725
     00000B73  A$lcc1725 |    00000B74  A$lcc1725 |    00000B75  A$lcc1725
     00000B76  A$lcc1725 |    00000B77  A$lcc1725 |    00000B7A  A$lcc1725
     00000B7C  A$lcc1725 |    00000B7D  A$lcc1725 |    00000B7D  C$main.c$
     00000B7E  A$lcc1725 |    00000B80  A$lcc1725 |    00000B80  C$main.c$
     00000B83  A$lcc1725 |    00000B84  A$lcc1725 |    00000B85  A$lcc1725
     00000B86  A$lcc1725 |    00000B86  C$main.c$ |    00000B87  A$lcc1725
     00000B88  A$lcc1725 |    00000B89  A$lcc1725 |    00000B8B  A$lcc1725
     00000B8C  A$lcc1725 |    00000B8D  A$lcc1725 |    00000B8E  A$lcc1725
     00000B8F  A$lcc1725 |    00000B92  A$lcc1725 |    00000B94  A$lcc1725
     00000B95  A$lcc1725 |    00000B95  C$main.c$ |    00000B96  A$lcc1725
     00000B96  C$main.c$ |    00000B96  XG$animat |    00000B98  A$lcc1725
     00000B98  C$main.c$ |    00000B98  C$main.c$ |    00000B98  G$main$0$
     00000B98  _main     |    00000B9A  A$lcc1725 |    00000B9C  A$lcc1725
     00000B9C  C$main.c$ |    00000B9D  A$lcc1725 |    00000B9F  A$lcc1725
     00000B9F  C$main.c$ |    00000BA0  A$lcc1725 |    00000BA0  C$main.c$
     00000BA3  A$lcc1725 |    00000BA4  A$lcc1725 |    00000BA7  A$lcc1725
     00000BA8  A$lcc1725 |    00000BA9  A$lcc1725 |    00000BA9  C$main.c$
     00000BAB  A$lcc1725 |    00000BAC  A$lcc1725 |    00000BAD  A$lcc1725
     00000BB0  A$lcc1725 |    00000BB1  A$lcc1725 |    00000BB1  C$main.c$
     00000BB2  A$lcc1725 |    00000BB4  A$lcc1725 |    00000BB4  C$main.c$
     00000BB6  A$lcc1725 |    00000BB8  A$lcc1725 |    00000BB8  C$main.c$
     00000BBA  A$lcc1725 |    00000BBC  A$lcc1725 |    00000BBE  A$lcc1725
     00000BBE  C$main.c$ |    00000BC0  A$lcc1725 |    00000BC2  A$lcc1725
     00000BC4  A$lcc1725 |    00000BC4  C$main.c$ |    00000BC6  A$lcc1725
     00000BC8  A$lcc1725 |    00000BCA  A$lcc1725 |    00000BCA  C$main.c$
     00000BCC  A$lcc1725 |    00000BCE  A$lcc1725 |    00000BD0  A$lcc1725
     00000BD0  C$main.c$ |    00000BD3  A$lcc1725 |    00000BD3  C$main.c$
     00000BD3  C$main.c$ |    00000BD6  A$lcc1725 |    00000BD9  A$lcc1725
     00000BD9  C$main.c$ |    00000BDC  A$lcc1725 |    00000BDF  A$lcc1725
     00000BE0  A$lcc1725 |    00000BE0  C$main.c$ |    00000BE3  A$lcc1725
     00000BE4  A$lcc1725 |    00000BE7  A$lcc1725 |    00000BE8  A$lcc1725
ASxxxx Linker V03.00 + NoICE + sdld,  page 15.
Hexadecimal  [32-Bits]

Area                       Addr        Size        Decimal Bytes (Attributes)
--------------------       ----        ----        ------- ----- ------------
_CODE                  00000200    00001A82 =        6786. bytes (REL,CON)

        Value  Global            Value  Global            Value  Global    
        -----  ------            -----  ------            -----  ------    
     00000BE9  A$lcc1725 |    00000BEA  A$lcc1725 |    00000BEB  A$lcc1725
     00000BEE  A$lcc1725 |    00000BEF  A$lcc1725 |    00000BEF  C$main.c$
     00000BF2  A$lcc1725 |    00000BF3  A$lcc1725 |    00000BF6  A$lcc1725
     00000BF6  C$main.c$ |    00000BF9  A$lcc1725 |    00000BFC  A$lcc1725
     00000BFD  A$lcc1725 |    00000BFE  A$lcc1725 |    00000BFF  A$lcc1725
     00000C00  A$lcc1725 |    00000C02  A$lcc1725 |    00000C05  A$lcc1725
     00000C07  A$lcc1725 |    00000C09  A$lcc1725 |    00000C09  C$main.c$
     00000C09  C$main.c$ |    00000C0C  A$lcc1725 |    00000C0E  A$lcc1725
     00000C10  A$lcc1725 |    00000C13  A$lcc1725 |    00000C15  A$lcc1725
     00000C17  A$lcc1725 |    00000C19  A$lcc1725 |    00000C19  C$main.c$
     00000C19  C$main.c$ |    00000C1B  A$lcc1725 |    00000C1D  A$lcc1725
     00000C1D  C$main.c$ |    00000C20  A$lcc1725 |    00000C22  A$lcc1725
     00000C22  C$main.c$ |    00000C25  A$lcc1725 |    00000C27  A$lcc1725
     00000C27  C$main.c$ |    00000C29  A$lcc1725 |    00000C29  C$main.c$
     00000C29  C$main.c$ |    00000C2B  A$lcc1725 |    00000C2D  A$lcc1725
     00000C2D  C$main.c$ |    00000C30  A$lcc1725 |    00000C32  A$lcc1725
     00000C32  C$main.c$ |    00000C35  A$lcc1725 |    00000C37  A$lcc1725
     00000C37  C$main.c$ |    00000C39  A$lcc1725 |    00000C39  C$main.c$
     00000C39  C$main.c$ |    00000C3B  A$lcc1725 |    00000C3D  A$lcc1725
     00000C3D  C$main.c$ |    00000C40  A$lcc1725 |    00000C42  A$lcc1725
     00000C42  C$main.c$ |    00000C45  A$lcc1725 |    00000C47  A$lcc1725
     00000C47  C$main.c$ |    00000C4A  A$lcc1725 |    00000C4C  A$lcc1725
     00000C4C  C$main.c$ |    00000C4E  A$lcc1725 |    00000C4E  C$main.c$
     00000C4E  C$main.c$ |    00000C51  A$lcc1725 |    00000C52  A$lcc1725
     00000C53  A$lcc1725 |    00000C54  A$lcc1725 |    00000C55  A$lcc1725
     00000C57  A$lcc1725 |    00000C59  A$lcc1725 |    00000C5A  A$lcc1725
     00000C5C  A$lcc1725 |    00000C5D  A$lcc1725 |    00000C5F  A$lcc1725
     00000C61  A$lcc1725 |    00000C63  A$lcc1725 |    00000C65  A$lcc1725
     00000C66  A$lcc1725 |    00000C68  A$lcc1725 |    00000C6A  A$lcc1725
     00000C6C  A$lcc1725 |    00000C6D  A$lcc1725 |    00000C6F  A$lcc1725
     00000C71  A$lcc1725 |    00000C73  A$lcc1725 |    00000C73  C$main.c$
     00000C76  A$lcc1725 |    00000C78  A$lcc1725 |    00000C78  C$main.c$
     00000C7B  A$lcc1725 |    00000C7D  A$lcc1725 |    00000C7D  C$main.c$
     00000C80  A$lcc1725 |    00000C82  A$lcc1725 |    00000C82  C$main.c$
     00000C82  C$main.c$ |    00000C85  A$lcc1725 |    00000C86  A$lcc1725
     00000C88  A$lcc1725 |    00000C88  C$main.c$ |    00000C8B  A$lcc1725
     00000C8B  C$main.c$ |    00000C8E  A$lcc1725 |    00000C90  A$lcc1725
     00000C92  A$lcc1725 |    00000C95  A$lcc1725 |    00000C97  A$lcc1725
     00000C9A  A$lcc1725 |    00000C9B  A$lcc1725 |    00000C9E  A$lcc1725
     00000C9F  A$lcc1725 |    00000CA0  A$lcc1725 |    00000CA2  A$lcc1725
     00000CA2  C$main.c$ |    00000CA5  A$lcc1725 |    00000CA6  A$lcc1725
     00000CA8  A$lcc1725 |    00000CA8  C$main.c$ |    00000CAB  A$lcc1725
     00000CAB  C$main.c$ |    00000CAE  A$lcc1725 |    00000CB0  A$lcc1725
     00000CB2  A$lcc1725 |    00000CB5  A$lcc1725 |    00000CB7  A$lcc1725
     00000CBA  A$lcc1725 |    00000CBB  A$lcc1725 |    00000CBE  A$lcc1725
     00000CBF  A$lcc1725 |    00000CC0  A$lcc1725 |    00000CC2  A$lcc1725
     00000CC2  C$main.c$ |    00000CC5  A$lcc1725 |    00000CC6  A$lcc1725
     00000CC8  A$lcc1725 |    00000CCB  A$lcc1725 |    00000CCC  A$lcc1725
     00000CCE  A$lcc1725 |    00000CCE  C$main.c$ |    00000CD1  A$lcc1725
     00000CD3  A$lcc1725 |    00000CD3  C$main.c$ |    00000CD6  A$lcc1725
     00000CD6  C$main.c$ |    00000CD9  A$lcc1725 |    00000CD9  C$main.c$
ASxxxx Linker V03.00 + NoICE + sdld,  page 16.
Hexadecimal  [32-Bits]

Area                       Addr        Size        Decimal Bytes (Attributes)
--------------------       ----        ----        ------- ----- ------------
_CODE                  00000200    00001A82 =        6786. bytes (REL,CON)

        Value  Global            Value  Global            Value  Global    
        -----  ------            -----  ------            -----  ------    
     00000CDC  A$lcc1725 |    00000CDE  A$lcc1725 |    00000CE0  A$lcc1725
     00000CE0  C$main.c$ |    00000CE3  A$lcc1725 |    00000CE3  C$main.c$
     00000CE6  A$lcc1725 |    00000CE8  A$lcc1725 |    00000CEA  A$lcc1725
     00000CEA  C$main.c$ |    00000CED  A$lcc1725 |    00000CEE  A$lcc1725
     00000CF0  A$lcc1725 |    00000CF1  A$lcc1725 |    00000CF2  A$lcc1725
     00000CF5  A$lcc1725 |    00000CF7  A$lcc1725 |    00000CF7  C$main.c$
     00000CFA  A$lcc1725 |    00000CFA  C$main.c$ |    00000CFD  A$lcc1725
     00000CFD  C$main.c$ |    00000CFD  XG$main$0 |    00000D00  G$BKG_MAP
     00000D00  _BKG_MAP  |    00001100  G$BKG_TIL |    00001100  _BKG_TILE
     00001340  G$COLLISI |    00001340  _COLLISIO |    00001740  G$WIN_FRO
     00001740  _WIN_FROG |    00001744  _get_vram |    00001751  _get_win_
     00001759  _get_bkg_ |    00001780  _set_vram |    0000178F  _set_win_
     00001797  _set_bkg_ |    0000186B  ___printf |    00001C02  _sprintf 
     00001C23  ___move_m |    00001C5B  _get_win_ |    00001C63  _get_bkg_
ASxxxx Linker V03.00 + NoICE + sdld,  page 17.
Hexadecimal  [32-Bits]

Area                       Addr        Size        Decimal Bytes (Attributes)
--------------------       ----        ----        ------- ----- ------------
_HEADER0               00000000    00000001 =           1. bytes (ABS,CON)

        Value  Global            Value  Global            Value  Global    
        -----  ------            -----  ------            -----  ------    
     00000020  .call_hl 
ASxxxx Linker V03.00 + NoICE + sdld,  page 18.
Hexadecimal  [32-Bits]

Area                       Addr        Size        Decimal Bytes (Attributes)
--------------------       ----        ----        ------- ----- ------------
_HEADER1               00000000    00000005 =           5. bytes (ABS,CON)

        Value  Global            Value  Global            Value  Global    
        -----  ------            -----  ------            -----  ------    
     00000028  .MemsetSm
ASxxxx Linker V03.00 + NoICE + sdld,  page 19.
Hexadecimal  [32-Bits]

Area                       Addr        Size        Decimal Bytes (Attributes)
--------------------       ----        ----        ------- ----- ------------
_HEADER2               00000000    00000007 =           7. bytes (ABS,CON)

        Value  Global            Value  Global            Value  Global    
        -----  ------            -----  ------            -----  ------    
     00000030  .MemcpySm
ASxxxx Linker V03.00 + NoICE + sdld,  page 20.
Hexadecimal  [32-Bits]

Area                       Addr        Size        Decimal Bytes (Attributes)
--------------------       ----        ----        ------- ----- ------------
_HEADER3               00000000    00000008 =           8. bytes (ABS,CON)

        Value  Global            Value  Global            Value  Global    
        -----  ------            -----  ------            -----  ------    
ASxxxx Linker V03.00 + NoICE + sdld,  page 21.
Hexadecimal  [32-Bits]

Area                       Addr        Size        Decimal Bytes (Attributes)
--------------------       ----        ----        ------- ----- ------------
_HEADER4               00000000    0000004F =          79. bytes (ABS,CON)

        Value  Global            Value  Global            Value  Global    
        -----  ------            -----  ------            -----  ------    
     00000080  .int      |    0000008F  _wait_int |    0000009C  __standar
     000000AC  _refresh_
ASxxxx Linker V03.00 + NoICE + sdld,  page 22.
Hexadecimal  [32-Bits]

Area                       Addr        Size        Decimal Bytes (Attributes)
--------------------       ----        ----        ------- ----- ------------
_HEADER5               00000000    00000002 =           2. bytes (ABS,CON)

        Value  Global            Value  Global            Value  Global    
        -----  ------            -----  ------            -----  ------    
ASxxxx Linker V03.00 + NoICE + sdld,  page 23.
Hexadecimal  [32-Bits]

Area                       Addr        Size        Decimal Bytes (Attributes)
--------------------       ----        ----        ------- ----- ------------
_HEADER6               00000000    00000030 =          48. bytes (ABS,CON)

        Value  Global            Value  Global            Value  Global    
        -----  ------            -----  ------            -----  ------    
ASxxxx Linker V03.00 + NoICE + sdld,  page 24.
Hexadecimal  [32-Bits]

Area                       Addr        Size        Decimal Bytes (Attributes)
--------------------       ----        ----        ------- ----- ------------
_HEADER7               00000000    00000006 =           6. bytes (ABS,CON)

        Value  Global            Value  Global            Value  Global    
        -----  ------            -----  ------            -----  ------    
ASxxxx Linker V03.00 + NoICE + sdld,  page 25.
Hexadecimal  [32-Bits]

Area                       Addr        Size        Decimal Bytes (Attributes)
--------------------       ----        ----        ------- ----- ------------
_HEADER8               00000000    00000003 =           3. bytes (ABS,CON)

        Value  Global            Value  Global            Value  Global    
        -----  ------            -----  ------            -----  ------    
ASxxxx Linker V03.00 + NoICE + sdld,  page 26.
Hexadecimal  [32-Bits]

Area                       Addr        Size        Decimal Bytes (Attributes)
--------------------       ----        ----        ------- ----- ------------
_HEADER9               00000000    00000001 =           1. bytes (ABS,CON)

        Value  Global            Value  Global            Value  Global    
        -----  ------            -----  ------            -----  ------    
ASxxxx Linker V03.00 + NoICE + sdld,  page 27.
Hexadecimal  [32-Bits]

Area                       Addr        Size        Decimal Bytes (Attributes)
--------------------       ----        ----        ------- ----- ------------
_HEADERa               00000000    00000001 =           1. bytes (ABS,CON)

        Value  Global            Value  Global            Value  Global    
        -----  ------            -----  ------            -----  ------    
ASxxxx Linker V03.00 + NoICE + sdld,  page 28.
Hexadecimal  [32-Bits]

Area                       Addr        Size        Decimal Bytes (Attributes)
--------------------       ----        ----        ------- ----- ------------
_HEADERb               00000000    00000001 =           1. bytes (ABS,CON)

        Value  Global            Value  Global            Value  Global    
        -----  ------            -----  ------            -----  ------    
ASxxxx Linker V03.00 + NoICE + sdld,  page 29.
Hexadecimal  [32-Bits]

Area                       Addr        Size        Decimal Bytes (Attributes)
--------------------       ----        ----        ------- ----- ------------
_HEADERc               00000000    00000002 =           2. bytes (ABS,CON)

        Value  Global            Value  Global            Value  Global    
        -----  ------            -----  ------            -----  ------    
ASxxxx Linker V03.00 + NoICE + sdld,  page 30.
Hexadecimal  [32-Bits]

Area                       Addr        Size        Decimal Bytes (Attributes)
--------------------       ----        ----        ------- ----- ------------
_HEADERd               00000000    00000001 =           1. bytes (ABS,CON)

        Value  Global            Value  Global            Value  Global    
        -----  ------            -----  ------            -----  ------    
ASxxxx Linker V03.00 + NoICE + sdld,  page 31.
Hexadecimal  [32-Bits]

Area                       Addr        Size        Decimal Bytes (Attributes)
--------------------       ----        ----        ------- ----- ------------
_HEADERe               00000000    00000001 =           1. bytes (ABS,CON)

        Value  Global            Value  Global            Value  Global    
        -----  ------            -----  ------            -----  ------    
ASxxxx Linker V03.00 + NoICE + sdld,  page 32.
Hexadecimal  [32-Bits]

Area                       Addr        Size        Decimal Bytes (Attributes)
--------------------       ----        ----        ------- ----- ------------
_HEADERf               00000000    00000002 =           2. bytes (ABS,CON)

        Value  Global            Value  Global            Value  Global    
        -----  ------            -----  ------            -----  ------    
ASxxxx Linker V03.00 + NoICE + sdld,  page 33.
Hexadecimal  [32-Bits]

Area                       Addr        Size        Decimal Bytes (Attributes)
--------------------       ----        ----        ------- ----- ------------
_HEADER10              00000000    00000082 =         130. bytes (ABS,CON)

        Value  Global            Value  Global            Value  Global    
        -----  ------            -----  ------            -----  ------    
     00000150  .reset    |    00000150  _reset    |    00000157  .code_sta
     000001B7  _exit     |    000001BB  _set_inte
ASxxxx Linker V03.00 + NoICE + sdld,  page 34.
Hexadecimal  [32-Bits]

Area                       Addr        Size        Decimal Bytes (Attributes)
--------------------       ----        ----        ------- ----- ------------
_HEADER11              00000000    00000001 =           1. bytes (ABS,CON)

        Value  Global            Value  Global            Value  Global    
        -----  ------            -----  ------            -----  ------    
ASxxxx Linker V03.00 + NoICE + sdld,  page 35.
Hexadecimal  [32-Bits]

Area                       Addr        Size        Decimal Bytes (Attributes)
--------------------       ----        ----        ------- ----- ------------
_HOME                  00001C82    000004E5 =        1253. bytes (REL,CON)

        Value  Global            Value  Global            Value  Global    
        -----  ------            -----  ------            -----  ------    
     00001C82  .memset_s |    00001C8B  .memcpy_s |    00001CA8  .remove_V
     00001CAB  .remove_i |    00001CC8  .add_VBL  |    00001CCB  .add_int 
     00001CD6  .wait_vbl |    00001CD6  _wait_vbl |    00001CE6  .display_
     00001CE6  _display_ |    00001CFE  _remove_V |    00001D09  _add_VBL 
     00001D14  _set_tile |    00001D19  _set_bkg_ |    00001D19  _set_win_
     00001D21  _set_spri |    00001D51  _reverse  |    00001D85  __modulon
     00001E1A  .padup    |    00001E1A  _waitpadu |    00001E2A  .jpad    
     00001E2A  _joypad   |    00001E52  _waitpad  |    00001E55  .wait_pad
     00001E5C  __divulon |    00001EDE  ___sdcc_c |    00001F0E  _add_LCD 
     00001F19  .add_LCD  |    00001F1F  _remove_L |    00001F2A  .remove_L
     00001F30  __divsuch |    00001F3D  __modsuch |    00001F47  __divusch
     00001F59  __modusch |    00001F69  __divscha |    00001F75  __modscha
     00001F7F  __divsint |    00001F90  __modsint |    00001F9F  __divucha
     00001FAB  __moducha |    00001FB5  __divuint |    00001FC6  __moduint
     00001FD5  .div8     |    00001FD5  .mod8     |    00001FDD  .div16   
     00001FDD  .mod16    |    00002013  .divu8    |    00002013  .modu8   
     00002016  .divu16   |    00002016  .modu16   |    00002057  _set_bkg_
     0000206B  _uitoa    |    0000207A  _itoa     |    00002089  .itoa    
     0000209D  .utoa     |    00002111  .set_xy_w |    0000211A  .set_xy_b
     00002129  .set_xy_t
ASxxxx Linker V03.00 + NoICE + sdld,  page 36.
Hexadecimal  [32-Bits]

Area                       Addr        Size        Decimal Bytes (Attributes)
--------------------       ----        ----        ------- ----- ------------
_CODE_0                00002167    00000440 =        1088. bytes (REL,CON)

        Value  Global            Value  Global            Value  Global    
        -----  ------            -----  ------            -----  ------    
     00002167  G$FONT$0_ |    00002167  _FONT    
ASxxxx Linker V03.00 + NoICE + sdld,  page 37.
Hexadecimal  [32-Bits]

Area                       Addr        Size        Decimal Bytes (Attributes)
--------------------       ----        ----        ------- ----- ------------
_INITIALIZER           000025A7    0000003B =          59. bytes (REL,CON)

        Value  Global            Value  Global            Value  Global    
        -----  ------            -----  ------            -----  ------    
     000025A7  Fmain$__x |    000025CB  Fmain$__x |    000025CE  Fmain$__x
     000025D2  Fmain$__x |    000025D6  Fmain$__x |    000025DD  Fmain$__x
ASxxxx Linker V03.00 + NoICE + sdld,  page 38.
Hexadecimal  [32-Bits]

Area                       Addr        Size        Decimal Bytes (Attributes)
--------------------       ----        ----        ------- ----- ------------
_GSINIT                000025E2    0000000C =          12. bytes (REL,CON)

        Value  Global            Value  Global            Value  Global    
        -----  ------            -----  ------            -----  ------    
     000025E2  gsinit   
ASxxxx Linker V03.00 + NoICE + sdld,  page 39.
Hexadecimal  [32-Bits]

Area                       Addr        Size        Decimal Bytes (Attributes)
--------------------       ----        ----        ------- ----- ------------
_GSFINAL               000025EE    00000001 =           1. bytes (REL,CON)

        Value  Global            Value  Global            Value  Global    
        -----  ------            -----  ------            -----  ------    
ASxxxx Linker V03.00 + NoICE + sdld,  page 40.
Hexadecimal  [32-Bits]

Area                       Addr        Size        Decimal Bytes (Attributes)
--------------------       ----        ----        ------- ----- ------------
_DATA                  0000C0A0    00000059 =          89. bytes (REL,CON)

        Value  Global            Value  Global            Value  Global    
        -----  ------            -----  ------            -----  ------    
     0000C0A0  __cpu     |    0000C0A1  __is_GBA  |    0000C0A2  .mode    
     0000C0A3  .sys_time |    0000C0A3  _sys_time |    0000C0A5  .int_0x40
     0000C0B9  G$scroll$ |    0000C0B9  _scroll   |    0000C0C3  G$PLAYER$
     0000C0C3  _PLAYER   |    0000C0C9  G$joy$0_0 |    0000C0C9  _joy     
     0000C0CA  G$last_jo |    0000C0CA  _last_joy |    0000C0CB  G$is_movi
     0000C0CB  _is_movin |    0000C0CC  G$turtles |    0000C0CC  _turtles_
     0000C0CD  G$move_x$ |    0000C0CD  _move_x   |    0000C0CE  G$move_y$
     0000C0CE  _move_y   |    0000C0CF  G$scx_cou |    0000C0CF  _scx_coun
     0000C0D0  G$turtle_ |    0000C0D0  _turtle_c |    0000C0D1  G$dive_co
     0000C0D1  _dive_cou |    0000C0D2  G$turtle_ |    0000C0D2  _turtle_t
     0000C0D3  G$dive_ti |    0000C0D3  _dive_til |    0000C0D4  G$vram_ad
     0000C0D4  _vram_add |    0000C0D6  G$text_bu |    0000C0D6  _text_buf
     0000C0E6  ___curren |    0000C0E8  ___curren |    0000C0E9  .int_0x48
ASxxxx Linker V03.00 + NoICE + sdld,  page 41.
Hexadecimal  [32-Bits]

Area                       Addr        Size        Decimal Bytes (Attributes)
--------------------       ----        ----        ------- ----- ------------
_INITIALIZED           0000C0F9    0000003B =          59. bytes (REL,CON)

        Value  Global            Value  Global            Value  Global    
        -----  ------            -----  ------            -----  ------    
     0000C0F9  G$scroll_ |    0000C0F9  _scroll_r |    0000C11D  G$turtle_
     0000C11D  _turtle_d |    0000C120  G$turtle_ |    0000C120  _turtle_d
     0000C124  G$turtle_ |    0000C124  _turtle_t |    0000C128  G$dive_ti
     0000C128  _dive_til |    0000C12F  G$score$0 |    0000C12F  _score   
     0000C133  ___render
ASxxxx Linker V03.00 + NoICE + sdld,  page 42.
Hexadecimal  [32-Bits]

Area                       Addr        Size        Decimal Bytes (Attributes)
--------------------       ----        ----        ------- ----- ------------
_HRAM12                00000000    00000003 =           3. bytes (ABS,CON)

        Value  Global            Value  Global            Value  Global    
        -----  ------            -----  ------            -----  ------    
     0000FF90  __current |    0000FF92  __shadow_
ASxxxx Linker V03.00 + NoICE + sdld,  page 43.
Hexadecimal  [32-Bits]

Area                       Addr        Size        Decimal Bytes (Attributes)
--------------------       ----        ----        ------- ----- ------------
_CODE_1                00014000    000000AC =         172. bytes (REL,CON)

        Value  Global            Value  Global            Value  Global    
        -----  ------            -----  ------            -----  ------    
     00014000  C$frogger |    00014000  G$__func_ |    00014000  G$frogger
     00014000  ___func_f |    00014000  _frogger_ |    00014008  G$frogger
     00014008  _frogger_ |    00014048  G$frogger |    00014048  _frogger_
     00014054  G$frogger |    00014054  _frogger_ |    00014056  C$frogger
     00014056  G$__func_ |    00014056  G$frogger |    00014056  ___func_f
     00014056  _frogger_ |    0001405E  G$frogger |    0001405E  _frogger_
     0001409E  G$frogger |    0001409E  _frogger_ |    000140AA  G$frogger
     000140AA  _frogger_
ASxxxx Linker V03.00 + NoICE + sdld,  page 44.
Hexadecimal  [32-Bits]

Area                       Addr        Size        Decimal Bytes (Attributes)
--------------------       ----        ----        ------- ----- ------------
_HEADER_LCD0           00000000    00000003 =           3. bytes (ABS,CON)

        Value  Global            Value  Global            Value  Global    
        -----  ------            -----  ------            -----  ------    
ASxxxx Linker V03.00 + NoICE + sdld,  page 45.

Files Linked                              [ module(s) ]

C:\c_code\gbdk\lib/small/asxxxx/gb/crt0.o
                                          [ Runtime ]
C:\Users\User\AppData\Local\Temp/lcc172520.rel
                                          [ main ]
C:\Users\User\AppData\Local\Temp/lcc172521.rel
                                          [ bkg_map ]
C:\Users\User\AppData\Local\Temp/lcc172522.rel
                                          [ bkg_tiles ]
C:\Users\User\AppData\Local\Temp/lcc172523.rel
                                          [ collision_map ]
C:\Users\User\AppData\Local\Temp/lcc172524.rel
                                          [ font ]
C:\Users\User\AppData\Local\Temp/lcc172525.rel
                                          [ frogger ]
C:\Users\User\AppData\Local\Temp/lcc172526.rel
                                          [ frogger_16 ]
C:\Users\User\AppData\Local\Temp/lcc172527.rel
                                          [ win_frog ]


Libraries Linked                          [ object file ]

C:\c_code\gbdk\lib/small/asxxxx/gb/gb.lib
                                          [ sfr.o ]
C:\c_code\gbdk\lib/small/asxxxx/gb/gb.lib
                                          [ get_tile.o ]
C:\c_code\gbdk\lib/small/asxxxx/gb/gb.lib
                                          [ set_tile.o ]
C:\c_code\gbdk\lib/small/asxxxx/gb/gb.lib
                                          [ set_data.o ]
C:\c_code\gbdk\lib/small/asxxxx/gbz80/gbz80.lib
                                          [ reverse.o ]
C:\c_code\gbdk\lib/small/asxxxx/gbz80/gbz80.lib
                                          [ _modulong.o ]
C:\c_code\gbdk\lib/small/asxxxx/gbz80/gbz80.lib
                                          [ sprintf.o ]
C:\c_code\gbdk\lib/small/asxxxx/gb/gb.lib
                                          [ pad.o ]
C:\c_code\gbdk\lib/small/asxxxx/gbz80/gbz80.lib
                                          [ _divulong.o ]
C:\c_code\gbdk\lib/small/asxxxx/gb/gb.lib
                                          [ metasprites.o ]
C:\c_code\gbdk\lib/small/asxxxx/gbz80/gbz80.lib
                                          [ __sdcc_call_hl.o ]
C:\c_code\gbdk\lib/small/asxxxx/gb/gb.lib
                                          [ lcd.o ]
C:\c_code\gbdk\lib/small/asxxxx/gb/gb.lib
                                          [ get_addr.o ]
C:\c_code\gbdk\lib/small/asxxxx/gbz80/gbz80.lib
                                          [ div.o ]
C:\c_code\gbdk\lib/small/asxxxx/gb/gb.lib
                                          [ set_bk_t.o ]
C:\c_code\gbdk\lib/small/asxxxx/gbz80/gbz80.lib
                                          [ itoa.o ]
C:\c_code\gbdk\lib/small/asxxxx/gb/gb.lib
                                          [ set_xy_t.o ]

ASxxxx Linker V03.00 + NoICE + sdld,  page 46.

User Base Address Definitions

_DATA=0xC0A0
_CODE=0x0200
ASxxxx Linker V03.00 + NoICE + sdld,  page 47.

User Global Definitions

_shadow_OAM=0xC000
.STACK=0xE000
.refresh_OAM=0xFF80

