ASxxxx Linker V03.00 + NoICE + sdld,  page 1.
Hexadecimal  [32-Bits]

Area                       Addr        Size        Decimal Bytes (Attributes)
--------------------       ----        ----        ------- ----- ------------
.  .ABS.               00000000    00000000 =           0. bytes (ABS,CON)

        Value  Global            Value  Global            Value  Global    
        -----  ------            -----  ------            -----  ------    
     00000000  .__.ABS.  |    00000000  _rRAMG    |    00000000  l__BASE  
     00000000  l__BSS    |    00000000  l__CABS   |    00000000  l__DABS  
     00000000  l__HEADER |    00000000  l__HEADER |    00000000  l__HEAP  
     00000000  l__HEAP_E |    00000000  l__HRAM   |    00000000  l__LIT   
     00000000  s__CABS   |    00000000  s__DABS   |    00000000  s__HEADER
     00000000  s__HEADER |    00000000  s__HEADER |    00000000  s__HEADER
     00000000  s__HEADER |    00000000  s__HEADER |    00000000  s__HEADER
     00000000  s__HEADER |    00000000  s__HEADER |    00000000  s__HEADER
     00000000  s__HEADER |    00000000  s__HEADER |    00000000  s__HEADER
     00000000  s__HEADER |    00000000  s__HEADER |    00000000  s__HEADER
     00000000  s__HEADER |    00000000  s__HEADER |    00000000  s__HEADER
     00000000  s__HEADER |    00000000  s__HEADER |    00000000  s__HRAM  
     00000000  s__HRAM12 |    00000001  ___bank_f |    00000001  ___bank_f
     00000001  ___bank_f |    00000001  ___bank_l |    00000001  l__GSFINA
     00000001  l__HEADER |    00000001  l__HEADER |    00000001  l__HEADER
     00000001  l__HEADER |    00000001  l__HEADER |    00000001  l__HEADER
     00000001  l__HEADER |    00000002  l__HEADER |    00000002  l__HEADER
     00000002  l__HEADER |    00000003  l__HEADER |    00000003  l__HEADER
     00000003  l__HRAM12 |    00000005  l__HEADER |    00000006  l__HEADER
     00000007  l__HEADER |    00000008  l__HEADER |    0000000C  l__GSINIT
     00000030  l__HEADER |    0000004C  l__HEADER |    00000074  l__INITIA
     00000074  l__INITIA |    00000084  l__HEADER |    000000EC  l__DATA  
     00000200  s__CODE   |    000003BC  l__HOME   |    00000440  l__CODE_0
     00002000  _rROMB0   |    0000224E  l__CODE_1 |    000025B8  l__CODE  
     000027B8  s__HOME   |    00002B74  s__BASE   |    00002B74  s__CODE_0
     00002FB4  s__INITIA |    00002FB4  s__LIT    |    00003000  _rROMB1  
     00003028  s__GSINIT |    00003034  s__GSFINA |    00004000  _rRAMB   
     00008000  __VRAM    |    00008000  __VRAM800 |    00008800  __VRAM880
     00009000  __VRAM900 |    00009800  __SCRN0   |    00009C00  __SCRN1  
     0000A000  __SRAM    |    0000C000  __RAM     |    0000C000  _shadow_O
     0000C0A0  s__DATA   |    0000C18C  s__BSS    |    0000C18C  s__INITIA
     0000C200  s__HEAP   |    0000C200  s__HEAP_E |    0000D000  __RAMBANK
     0000E000  .STACK    |    0000FE00  __OAMRAM  |    0000FF00  _P1_REG  
     0000FF00  __IO      |    0000FF01  _SB_REG   |    0000FF02  _SC_REG  
     0000FF04  _DIV_REG  |    0000FF05  _TIMA_REG |    0000FF06  _TMA_REG 
     0000FF07  _TAC_REG  |    0000FF0F  _IF_REG   |    0000FF10  _NR10_REG
     0000FF11  _NR11_REG |    0000FF12  _NR12_REG |    0000FF13  _NR13_REG
     0000FF14  _NR14_REG |    0000FF16  _NR21_REG |    0000FF17  _NR22_REG
     0000FF18  _NR23_REG |    0000FF19  _NR24_REG |    0000FF1A  _NR30_REG
     0000FF1B  _NR31_REG |    0000FF1C  _NR32_REG |    0000FF1D  _NR33_REG
     0000FF1E  _NR34_REG |    0000FF20  _NR41_REG |    0000FF21  _NR42_REG
     0000FF22  _NR43_REG |    0000FF23  _NR44_REG |    0000FF24  _NR50_REG
     0000FF25  _NR51_REG |    0000FF26  _NR52_REG |    0000FF30  _AUD3WAVE
     0000FF30  _PCM_SAMP |    0000FF30  __AUD3WAV |    0000FF40  _LCDC_REG
     0000FF41  _STAT_REG |    0000FF42  _SCY_REG  |    0000FF43  _SCX_REG 
     0000FF44  _LY_REG   |    0000FF45  _LYC_REG  |    0000FF46  _DMA_REG 
     0000FF47  _BGP_REG  |    0000FF48  _OBP0_REG |    0000FF49  _OBP1_REG
     0000FF4A  _WY_REG   |    0000FF4B  _WX_REG   |    0000FF4D  _KEY1_REG
     0000FF4F  _VBK_REG  |    0000FF51  _HDMA1_RE |    0000FF52  _HDMA2_RE
     0000FF53  _HDMA3_RE |    0000FF54  _HDMA4_RE |    0000FF55  _HDMA5_RE
ASxxxx Linker V03.00 + NoICE + sdld,  page 2.
Hexadecimal  [32-Bits]

Area                       Addr        Size        Decimal Bytes (Attributes)
--------------------       ----        ----        ------- ----- ------------
.  .ABS.               00000000    00000000 =           0. bytes (ABS,CON)

        Value  Global            Value  Global            Value  Global    
        -----  ------            -----  ------            -----  ------    
     0000FF56  _RP_REG   |    0000FF68  _BCPS_REG |    0000FF69  _BCPD_REG
     0000FF6A  _OCPS_REG |    0000FF6B  _OCPD_REG |    0000FF70  _SVBK_REG
     0000FF76  _PCM12_RE |    0000FF77  _PCM34_RE |    0000FF80  .refresh_
     0000FF80  __HRAM    |    0000FFFF  _IE_REG   |    00014000  s__CODE_1
ASxxxx Linker V03.00 + NoICE + sdld,  page 3.
Hexadecimal  [32-Bits]

Area                       Addr        Size        Decimal Bytes (Attributes)
--------------------       ----        ----        ------- ----- ------------
_CODE                  00000200    000025B8 =        9656. bytes (REL,CON)

        Value  Global            Value  Global            Value  Global    
        -----  ------            -----  ------            -----  ------    
     00000200  A$lcc1085 |    00000200  C$main.c$ |    00000200  G$overlap
     00000200  _overlap  |    00000201  A$lcc1085 |    00000201  C$main.c$
     00000203  A$lcc1085 |    00000204  A$lcc1085 |    00000205  A$lcc1085
     00000207  A$lcc1085 |    00000208  A$lcc1085 |    00000209  A$lcc1085
     0000020A  A$lcc1085 |    0000020C  A$lcc1085 |    0000020E  A$lcc1085
     0000020F  A$lcc1085 |    00000211  A$lcc1085 |    00000212  A$lcc1085
     00000214  A$lcc1085 |    00000216  A$lcc1085 |    00000217  A$lcc1085
     00000219  A$lcc1085 |    0000021A  A$lcc1085 |    0000021C  A$lcc1085
     0000021E  A$lcc1085 |    0000021F  A$lcc1085 |    00000221  A$lcc1085
     00000222  A$lcc1085 |    00000224  A$lcc1085 |    00000226  A$lcc1085
     00000227  A$lcc1085 |    00000229  A$lcc1085 |    0000022A  A$lcc1085
     0000022C  A$lcc1085 |    0000022E  A$lcc1085 |    0000022F  A$lcc1085
     00000231  A$lcc1085 |    00000232  A$lcc1085 |    00000234  A$lcc1085
     00000236  A$lcc1085 |    00000237  A$lcc1085 |    00000239  A$lcc1085
     0000023A  A$lcc1085 |    0000023C  A$lcc1085 |    0000023C  C$main.c$
     0000023D  A$lcc1085 |    00000240  A$lcc1085 |    00000240  C$main.c$
     00000242  A$lcc1085 |    00000243  A$lcc1085 |    00000244  A$lcc1085
     00000246  A$lcc1085 |    00000247  A$lcc1085 |    00000248  A$lcc1085
     00000249  A$lcc1085 |    0000024A  A$lcc1085 |    0000024B  A$lcc1085
     0000024C  A$lcc1085 |    0000024D  A$lcc1085 |    0000024E  A$lcc1085
     0000024F  A$lcc1085 |    00000251  A$lcc1085 |    00000253  A$lcc1085
     00000255  A$lcc1085 |    00000257  A$lcc1085 |    00000258  A$lcc1085
     0000025A  A$lcc1085 |    0000025C  A$lcc1085 |    0000025E  A$lcc1085
     0000025F  A$lcc1085 |    00000261  A$lcc1085 |    00000263  A$lcc1085
     00000264  A$lcc1085 |    00000265  A$lcc1085 |    00000266  A$lcc1085
     00000267  A$lcc1085 |    00000268  A$lcc1085 |    00000269  A$lcc1085
     0000026A  A$lcc1085 |    0000026C  A$lcc1085 |    0000026E  A$lcc1085
     00000270  A$lcc1085 |    00000272  A$lcc1085 |    00000273  A$lcc1085
     00000275  A$lcc1085 |    00000277  A$lcc1085 |    00000279  A$lcc1085
     0000027A  A$lcc1085 |    0000027C  A$lcc1085 |    0000027C  C$main.c$
     0000027D  A$lcc1085 |    0000027F  A$lcc1085 |    0000027F  C$main.c$
     00000281  A$lcc1085 |    00000282  A$lcc1085 |    00000283  A$lcc1085
     00000285  A$lcc1085 |    00000286  A$lcc1085 |    00000287  A$lcc1085
     00000288  A$lcc1085 |    00000289  A$lcc1085 |    0000028A  A$lcc1085
     0000028B  A$lcc1085 |    0000028C  A$lcc1085 |    0000028D  A$lcc1085
     0000028E  A$lcc1085 |    00000290  A$lcc1085 |    00000292  A$lcc1085
     00000294  A$lcc1085 |    00000296  A$lcc1085 |    00000297  A$lcc1085
     00000299  A$lcc1085 |    0000029B  A$lcc1085 |    0000029D  A$lcc1085
     0000029E  A$lcc1085 |    000002A0  A$lcc1085 |    000002A2  A$lcc1085
     000002A3  A$lcc1085 |    000002A4  A$lcc1085 |    000002A6  A$lcc1085
     000002A7  A$lcc1085 |    000002A8  A$lcc1085 |    000002A9  A$lcc1085
     000002AA  A$lcc1085 |    000002AB  A$lcc1085 |    000002AC  A$lcc1085
     000002AD  A$lcc1085 |    000002AE  A$lcc1085 |    000002AF  A$lcc1085
     000002B1  A$lcc1085 |    000002B3  A$lcc1085 |    000002B5  A$lcc1085
     000002B7  A$lcc1085 |    000002B8  A$lcc1085 |    000002BA  A$lcc1085
     000002BC  A$lcc1085 |    000002BE  A$lcc1085 |    000002BF  A$lcc1085
     000002C1  A$lcc1085 |    000002C1  C$main.c$ |    000002C2  A$lcc1085
     000002C4  A$lcc1085 |    000002C4  C$main.c$ |    000002C6  A$lcc1085
     000002C6  C$main.c$ |    000002C7  A$lcc1085 |    000002C8  A$lcc1085
     000002C9  A$lcc1085 |    000002CB  A$lcc1085 |    000002CC  A$lcc1085
ASxxxx Linker V03.00 + NoICE + sdld,  page 4.
Hexadecimal  [32-Bits]

Area                       Addr        Size        Decimal Bytes (Attributes)
--------------------       ----        ----        ------- ----- ------------
_CODE                  00000200    000025B8 =        9656. bytes (REL,CON)

        Value  Global            Value  Global            Value  Global    
        -----  ------            -----  ------            -----  ------    
     000002CC  C$main.c$ |    000002CC  C$main.c$ |    000002CC  G$remove_
     000002CC  _remove_f |    000002CF  A$lcc1085 |    000002D1  A$lcc1085
     000002D4  A$lcc1085 |    000002D5  A$lcc1085 |    000002D6  A$lcc1085
     000002D7  A$lcc1085 |    000002DA  A$lcc1085 |    000002DB  A$lcc1085
     000002DC  A$lcc1085 |    000002DD  A$lcc1085 |    000002DF  A$lcc1085
     000002E0  A$lcc1085 |    000002E1  A$lcc1085 |    000002E4  A$lcc1085
     000002E5  A$lcc1085 |    000002E5  C$main.c$ |    000002E6  A$lcc1085
     000002E9  A$lcc1085 |    000002EA  A$lcc1085 |    000002EB  A$lcc1085
     000002EB  C$main.c$ |    000002EC  A$lcc1085 |    000002EF  A$lcc1085
     000002F0  A$lcc1085 |    000002F1  A$lcc1085 |    000002F1  C$main.c$
     000002F1  XG$remove |    000002F2  A$lcc1085 |    000002F2  C$main.c$
     000002F2  C$main.c$ |    000002F2  G$kill_fr |    000002F2  _kill_fro
     000002F5  A$lcc1085 |    000002F7  A$lcc1085 |    000002F7  C$main.c$
     000002FA  A$lcc1085 |    000002FC  A$lcc1085 |    000002FC  C$main.c$
     000002FF  A$lcc1085 |    00000301  A$lcc1085 |    00000301  C$main.c$
     00000304  A$lcc1085 |    00000305  A$lcc1085 |    00000306  A$lcc1085
     00000307  A$lcc1085 |    00000307  C$main.c$ |    00000308  A$lcc1085
     00000309  A$lcc1085 |    00000309  C$main.c$ |    00000309  XG$kill_f
     0000030A  A$lcc1085 |    0000030A  C$main.c$ |    0000030A  G$render_
     0000030A  _render_a |    0000030B  A$lcc1085 |    0000030B  C$main.c$
     0000030E  A$lcc1085 |    0000030F  A$lcc1085 |    0000030F  C$main.c$
     00000312  A$lcc1085 |    00000313  A$lcc1085 |    00000315  A$lcc1085
     00000316  A$lcc1085 |    00000317  A$lcc1085 |    00000318  A$lcc1085
     00000319  A$lcc1085 |    0000031A  A$lcc1085 |    0000031C  A$lcc1085
     0000031F  A$lcc1085 |    00000320  A$lcc1085 |    00000320  C$main.c$
     00000320  C$main.c$ |    00000321  A$lcc1085 |    00000322  A$lcc1085
     00000324  A$lcc1085 |    00000327  A$lcc1085 |    00000329  A$lcc1085
     0000032A  A$lcc1085 |    0000032D  A$lcc1085 |    0000032F  A$lcc1085
     00000330  A$lcc1085 |    00000333  A$lcc1085 |    00000334  A$lcc1085
     00000335  A$lcc1085 |    00000336  A$lcc1085 |    00000339  A$lcc1085
     0000033A  A$lcc1085 |    0000033B  A$lcc1085 |    0000033C  A$lcc1085
     0000033F  A$lcc1085 |    00000341  A$lcc1085 |    00000343  A$lcc1085
     00000345  A$lcc1085 |    00000347  A$lcc1085 |    0000034A  A$lcc1085
     0000034C  A$lcc1085 |    0000034F  A$lcc1085 |    00000350  A$lcc1085
     00000351  A$lcc1085 |    00000352  A$lcc1085 |    00000353  A$lcc1085
     00000355  A$lcc1085 |    00000356  A$lcc1085 |    00000358  A$lcc1085
     00000359  A$lcc1085 |    0000035C  A$lcc1085 |    0000035E  A$lcc1085
     0000035E  C$main.c$ |    00000360  A$lcc1085 |    00000360  C$main.c$
     00000361  A$lcc1085 |    00000362  A$lcc1085 |    00000364  A$lcc1085
     00000367  A$lcc1085 |    00000368  A$lcc1085 |    0000036B  A$lcc1085
     0000036C  A$lcc1085 |    0000036F  A$lcc1085 |    00000370  A$lcc1085
     00000371  A$lcc1085 |    00000372  A$lcc1085 |    00000373  A$lcc1085
     00000376  A$lcc1085 |    00000377  A$lcc1085 |    00000378  A$lcc1085
     00000379  A$lcc1085 |    0000037C  A$lcc1085 |    0000037E  A$lcc1085
     0000037F  A$lcc1085 |    00000380  A$lcc1085 |    00000381  A$lcc1085
     00000382  A$lcc1085 |    00000383  A$lcc1085 |    00000384  A$lcc1085
     00000385  A$lcc1085 |    00000386  A$lcc1085 |    00000389  A$lcc1085
     0000038B  A$lcc1085 |    0000038B  C$main.c$ |    0000038B  C$main.c$
     0000038E  A$lcc1085 |    00000390  A$lcc1085 |    00000390  C$main.c$
     00000393  A$lcc1085 |    00000395  A$lcc1085 |    00000396  A$lcc1085
     00000396  C$main.c$ |    00000396  XG$render |    00000397  A$lcc1085
ASxxxx Linker V03.00 + NoICE + sdld,  page 5.
Hexadecimal  [32-Bits]

Area                       Addr        Size        Decimal Bytes (Attributes)
--------------------       ----        ----        ------- ----- ------------
_CODE                  00000200    000025B8 =        9656. bytes (REL,CON)

        Value  Global            Value  Global            Value  Global    
        -----  ------            -----  ------            -----  ------    
     00000397  C$main.c$ |    00000397  C$main.c$ |    00000397  G$update_
     00000397  _update_l |    0000039A  A$lcc1085 |    0000039B  A$lcc1085
     0000039E  A$lcc1085 |    0000039F  A$lcc1085 |    000003A2  A$lcc1085
     000003A3  A$lcc1085 |    000003A4  A$lcc1085 |    000003A5  A$lcc1085
     000003A5  C$main.c$ |    000003A8  A$lcc1085 |    000003A9  A$lcc1085
     000003AC  A$lcc1085 |    000003AD  A$lcc1085 |    000003B0  A$lcc1085
     000003B1  A$lcc1085 |    000003B4  A$lcc1085 |    000003B6  A$lcc1085
     000003B6  C$main.c$ |    000003B9  A$lcc1085 |    000003BA  A$lcc1085
     000003BB  A$lcc1085 |    000003BD  A$lcc1085 |    000003BD  C$main.c$
     000003BF  A$lcc1085 |    000003C0  A$lcc1085 |    000003C1  A$lcc1085
     000003C4  A$lcc1085 |    000003C5  A$lcc1085 |    000003C6  A$lcc1085
     000003C7  A$lcc1085 |    000003C8  A$lcc1085 |    000003CB  A$lcc1085
     000003CD  A$lcc1085 |    000003CD  C$main.c$ |    000003D0  A$lcc1085
     000003D1  A$lcc1085 |    000003D3  A$lcc1085 |    000003D4  A$lcc1085
     000003D5  A$lcc1085 |    000003D5  C$main.c$ |    000003D6  A$lcc1085
     000003D8  A$lcc1085 |    000003D8  C$main.c$ |    000003DB  A$lcc1085
     000003DC  A$lcc1085 |    000003DF  A$lcc1085 |    000003E0  A$lcc1085
     000003E3  A$lcc1085 |    000003E4  A$lcc1085 |    000003E5  A$lcc1085
     000003E6  A$lcc1085 |    000003E6  C$main.c$ |    000003E9  A$lcc1085
     000003EB  A$lcc1085 |    000003EC  A$lcc1085 |    000003ED  A$lcc1085
     000003F0  A$lcc1085 |    000003F1  A$lcc1085 |    000003F2  A$lcc1085
     000003F3  A$lcc1085 |    000003F4  A$lcc1085 |    000003F7  A$lcc1085
     000003F9  A$lcc1085 |    000003F9  C$main.c$ |    000003F9  XG$update
     000003FA  Fmain$__s |    000003FD  A$lcc1085 |    000003FD  C$main.c$
     000003FD  C$main.c$ |    000003FD  G$update_ |    000003FD  _update_p
     00000400  A$lcc1085 |    00000401  A$lcc1085 |    00000404  A$lcc1085
     00000405  A$lcc1085 |    00000408  A$lcc1085 |    00000409  A$lcc1085
     0000040A  A$lcc1085 |    0000040B  A$lcc1085 |    0000040B  C$main.c$
     0000040E  A$lcc1085 |    0000040F  A$lcc1085 |    00000410  A$lcc1085
     00000411  A$lcc1085 |    00000411  C$main.c$ |    00000413  A$lcc1085
     00000414  A$lcc1085 |    00000415  A$lcc1085 |    00000418  A$lcc1085
     00000419  A$lcc1085 |    0000041A  A$lcc1085 |    0000041B  A$lcc1085
     0000041C  A$lcc1085 |    0000041F  A$lcc1085 |    00000421  A$lcc1085
     00000421  C$main.c$ |    00000424  A$lcc1085 |    00000425  A$lcc1085
     00000427  A$lcc1085 |    00000428  A$lcc1085 |    00000429  A$lcc1085
     00000429  C$main.c$ |    0000042A  A$lcc1085 |    0000042A  C$main.c$
     0000042A  XG$update |    0000042C  A$lcc1085 |    0000042C  C$main.c$
     0000042C  C$main.c$ |    0000042C  G$update_ |    0000042C  _update_s
     0000042F  A$lcc1085 |    00000430  A$lcc1085 |    00000432  A$lcc1085
     00000433  A$lcc1085 |    00000435  A$lcc1085 |    00000437  A$lcc1085
     00000438  A$lcc1085 |    00000439  A$lcc1085 |    0000043A  A$lcc1085
     0000043C  A$lcc1085 |    0000043C  C$main.c$ |    0000043F  A$lcc1085
     00000440  A$lcc1085 |    00000443  A$lcc1085 |    00000444  A$lcc1085
     00000447  A$lcc1085 |    00000448  A$lcc1085 |    00000449  A$lcc1085
     0000044A  A$lcc1085 |    0000044C  A$lcc1085 |    0000044C  C$main.c$
     0000044F  A$lcc1085 |    00000450  A$lcc1085 |    00000452  A$lcc1085
     00000453  A$lcc1085 |    00000455  A$lcc1085 |    00000457  A$lcc1085
     00000458  A$lcc1085 |    0000045A  A$lcc1085 |    0000045C  A$lcc1085
     0000045D  A$lcc1085 |    0000045F  A$lcc1085 |    0000045F  C$main.c$
     00000462  A$lcc1085 |    00000463  A$lcc1085 |    00000466  A$lcc1085
     00000467  A$lcc1085 |    0000046A  A$lcc1085 |    0000046B  A$lcc1085
ASxxxx Linker V03.00 + NoICE + sdld,  page 6.
Hexadecimal  [32-Bits]

Area                       Addr        Size        Decimal Bytes (Attributes)
--------------------       ----        ----        ------- ----- ------------
_CODE                  00000200    000025B8 =        9656. bytes (REL,CON)

        Value  Global            Value  Global            Value  Global    
        -----  ------            -----  ------            -----  ------    
     0000046C  A$lcc1085 |    0000046D  A$lcc1085 |    0000046F  A$lcc1085
     0000046F  C$main.c$ |    00000471  A$lcc1085 |    00000473  A$lcc1085
     00000476  A$lcc1085 |    00000477  A$lcc1085 |    00000479  A$lcc1085
     0000047A  A$lcc1085 |    0000047C  A$lcc1085 |    0000047E  A$lcc1085
     0000047E  C$main.c$ |    00000481  A$lcc1085 |    00000482  A$lcc1085
     00000485  A$lcc1085 |    00000486  A$lcc1085 |    00000489  A$lcc1085
     0000048A  A$lcc1085 |    0000048B  A$lcc1085 |    0000048C  A$lcc1085
     0000048E  A$lcc1085 |    0000048E  C$main.c$ |    00000491  A$lcc1085
     00000493  A$lcc1085 |    00000494  A$lcc1085 |    00000495  A$lcc1085
     00000497  A$lcc1085 |    00000498  A$lcc1085 |    0000049A  A$lcc1085
     0000049A  C$main.c$ |    0000049D  A$lcc1085 |    0000049E  A$lcc1085
     000004A1  A$lcc1085 |    000004A2  A$lcc1085 |    000004A5  A$lcc1085
     000004A6  A$lcc1085 |    000004A7  A$lcc1085 |    000004A8  A$lcc1085
     000004A8  C$main.c$ |    000004AB  A$lcc1085 |    000004AC  A$lcc1085
     000004AD  A$lcc1085 |    000004AE  A$lcc1085 |    000004AF  A$lcc1085
     000004B2  A$lcc1085 |    000004B3  A$lcc1085 |    000004B6  A$lcc1085
     000004B7  A$lcc1085 |    000004BA  A$lcc1085 |    000004BC  A$lcc1085
     000004BC  C$main.c$ |    000004BF  A$lcc1085 |    000004C0  A$lcc1085
     000004C1  A$lcc1085 |    000004C2  A$lcc1085 |    000004C2  C$main.c$
     000004C4  A$lcc1085 |    000004C5  A$lcc1085 |    000004C6  A$lcc1085
     000004C9  A$lcc1085 |    000004CA  A$lcc1085 |    000004CB  A$lcc1085
     000004CC  A$lcc1085 |    000004CD  A$lcc1085 |    000004D0  A$lcc1085
     000004D2  A$lcc1085 |    000004D2  C$main.c$ |    000004D5  A$lcc1085
     000004D6  A$lcc1085 |    000004D8  A$lcc1085 |    000004D9  A$lcc1085
     000004DA  A$lcc1085 |    000004DA  C$main.c$ |    000004DB  A$lcc1085
     000004DB  C$main.c$ |    000004DB  XG$update |    000004DD  Fmain$__s
     000004E0  A$lcc1085 |    000004E0  C$main.c$ |    000004E0  C$main.c$
     000004E0  G$update_ |    000004E0  _update_f |    000004E3  A$lcc1085
     000004E4  A$lcc1085 |    000004E6  A$lcc1085 |    000004E7  A$lcc1085
     000004E8  A$lcc1085 |    000004EA  A$lcc1085 |    000004EA  C$main.c$
     000004ED  A$lcc1085 |    000004EE  A$lcc1085 |    000004EF  A$lcc1085
     000004F0  A$lcc1085 |    000004F3  A$lcc1085 |    000004F5  A$lcc1085
     000004F5  C$main.c$ |    000004F6  A$lcc1085 |    000004F6  C$main.c$
     000004F7  A$lcc1085 |    000004F9  A$lcc1085 |    000004F9  C$main.c$
     000004FA  A$lcc1085 |    000004FB  A$lcc1085 |    000004FD  A$lcc1085
     000004FE  A$lcc1085 |    00000501  A$lcc1085 |    00000502  A$lcc1085
     00000503  A$lcc1085 |    00000506  A$lcc1085 |    00000508  A$lcc1085
     00000508  C$main.c$ |    00000508  XG$update |    00000509  A$lcc1085
     00000509  C$main.c$ |    00000509  G$update_ |    00000509  _update_f
     0000050A  A$lcc1085 |    0000050D  A$lcc1085 |    0000050F  A$lcc1085
     00000510  A$lcc1085 |    00000510  C$main.c$ |    00000513  A$lcc1085
     00000513  C$main.c$ |    00000515  A$lcc1085 |    00000516  A$lcc1085
     00000517  A$lcc1085 |    00000519  A$lcc1085 |    0000051B  A$lcc1085
     0000051C  A$lcc1085 |    0000051D  A$lcc1085 |    0000051F  A$lcc1085
     00000521  A$lcc1085 |    00000522  A$lcc1085 |    00000524  A$lcc1085
     00000527  A$lcc1085 |    00000529  A$lcc1085 |    0000052A  A$lcc1085
     0000052C  A$lcc1085 |    0000052E  A$lcc1085 |    00000531  A$lcc1085
     00000531  C$main.c$ |    00000532  A$lcc1085 |    00000533  A$lcc1085
     00000536  A$lcc1085 |    00000537  A$lcc1085 |    0000053A  A$lcc1085
     0000053B  A$lcc1085 |    0000053C  A$lcc1085 |    0000053D  A$lcc1085
     00000540  A$lcc1085 |    00000541  A$lcc1085 |    00000542  A$lcc1085
ASxxxx Linker V03.00 + NoICE + sdld,  page 7.
Hexadecimal  [32-Bits]

Area                       Addr        Size        Decimal Bytes (Attributes)
--------------------       ----        ----        ------- ----- ------------
_CODE                  00000200    000025B8 =        9656. bytes (REL,CON)

        Value  Global            Value  Global            Value  Global    
        -----  ------            -----  ------            -----  ------    
     00000543  A$lcc1085 |    00000546  A$lcc1085 |    00000548  A$lcc1085
     00000549  A$lcc1085 |    0000054A  A$lcc1085 |    0000054B  A$lcc1085
     0000054D  A$lcc1085 |    0000054E  A$lcc1085 |    00000551  A$lcc1085
     00000553  A$lcc1085 |    00000553  C$main.c$ |    00000556  A$lcc1085
     00000556  C$main.c$ |    00000557  A$lcc1085 |    00000559  A$lcc1085
     0000055A  A$lcc1085 |    0000055D  A$lcc1085 |    0000055F  A$lcc1085
     00000560  A$lcc1085 |    00000563  A$lcc1085 |    00000564  A$lcc1085
     00000565  A$lcc1085 |    00000566  A$lcc1085 |    00000569  A$lcc1085
     0000056A  A$lcc1085 |    0000056B  A$lcc1085 |    0000056C  A$lcc1085
     0000056F  A$lcc1085 |    00000571  A$lcc1085 |    00000573  A$lcc1085
     00000575  A$lcc1085 |    00000577  A$lcc1085 |    0000057A  A$lcc1085
     0000057C  A$lcc1085 |    0000057F  A$lcc1085 |    00000580  A$lcc1085
     00000581  A$lcc1085 |    00000582  A$lcc1085 |    00000583  A$lcc1085
     00000585  A$lcc1085 |    00000586  A$lcc1085 |    00000588  A$lcc1085
     00000589  A$lcc1085 |    0000058C  A$lcc1085 |    0000058E  A$lcc1085
     0000058E  C$main.c$ |    00000590  A$lcc1085 |    00000590  C$main.c$
     00000591  A$lcc1085 |    00000592  A$lcc1085 |    00000595  A$lcc1085
     00000596  A$lcc1085 |    00000599  A$lcc1085 |    0000059A  A$lcc1085
     0000059B  A$lcc1085 |    0000059C  A$lcc1085 |    0000059F  A$lcc1085
     000005A0  A$lcc1085 |    000005A1  A$lcc1085 |    000005A2  A$lcc1085
     000005A5  A$lcc1085 |    000005A7  A$lcc1085 |    000005A8  A$lcc1085
     000005A9  A$lcc1085 |    000005AA  A$lcc1085 |    000005AC  A$lcc1085
     000005AD  A$lcc1085 |    000005B0  A$lcc1085 |    000005B2  A$lcc1085
     000005B2  C$main.c$ |    000005B4  A$lcc1085 |    000005B4  C$main.c$
     000005B5  A$lcc1085 |    000005B6  A$lcc1085 |    000005B9  A$lcc1085
     000005BB  A$lcc1085 |    000005BC  A$lcc1085 |    000005BF  A$lcc1085
     000005C0  A$lcc1085 |    000005C1  A$lcc1085 |    000005C2  A$lcc1085
     000005C5  A$lcc1085 |    000005C6  A$lcc1085 |    000005C7  A$lcc1085
     000005C8  A$lcc1085 |    000005CB  A$lcc1085 |    000005CD  A$lcc1085
     000005CE  A$lcc1085 |    000005D0  A$lcc1085 |    000005D1  A$lcc1085
     000005D2  A$lcc1085 |    000005D3  A$lcc1085 |    000005D5  A$lcc1085
     000005D6  A$lcc1085 |    000005D9  A$lcc1085 |    000005DB  A$lcc1085
     000005DB  C$main.c$ |    000005DC  A$lcc1085 |    000005DC  C$main.c$
     000005DC  XG$update |    000005DD  A$lcc1085 |    000005DD  C$main.c$
     000005DD  C$main.c$ |    000005DD  G$reset_f |    000005DD  _reset_fr
     000005E0  A$lcc1085 |    000005E0  C$main.c$ |    000005E3  A$lcc1085
     000005E5  A$lcc1085 |    000005E5  C$main.c$ |    000005E8  A$lcc1085
     000005EA  A$lcc1085 |    000005ED  A$lcc1085 |    000005EF  A$lcc1085
     000005EF  C$main.c$ |    000005F2  A$lcc1085 |    000005F4  A$lcc1085
     000005F5  A$lcc1085 |    000005F7  A$lcc1085 |    000005F7  C$main.c$
     000005FA  A$lcc1085 |    000005FB  A$lcc1085 |    000005FC  A$lcc1085
     000005FE  A$lcc1085 |    000005FF  A$lcc1085 |    00000601  A$lcc1085
     00000601  C$main.c$ |    00000602  A$lcc1085 |    00000605  A$lcc1085
     00000605  C$main.c$ |    00000608  A$lcc1085 |    0000060A  A$lcc1085
     0000060A  C$main.c$ |    0000060D  A$lcc1085 |    0000060F  A$lcc1085
     00000610  A$lcc1085 |    00000611  A$lcc1085 |    00000614  A$lcc1085
     00000615  A$lcc1085 |    00000618  A$lcc1085 |    00000619  A$lcc1085
     0000061A  A$lcc1085 |    0000061B  A$lcc1085 |    0000061C  A$lcc1085
     0000061F  A$lcc1085 |    00000620  A$lcc1085 |    00000621  A$lcc1085
     00000622  A$lcc1085 |    00000625  A$lcc1085 |    00000627  A$lcc1085
     00000628  A$lcc1085 |    00000629  A$lcc1085 |    0000062A  A$lcc1085
ASxxxx Linker V03.00 + NoICE + sdld,  page 8.
Hexadecimal  [32-Bits]

Area                       Addr        Size        Decimal Bytes (Attributes)
--------------------       ----        ----        ------- ----- ------------
_CODE                  00000200    000025B8 =        9656. bytes (REL,CON)

        Value  Global            Value  Global            Value  Global    
        -----  ------            -----  ------            -----  ------    
     0000062B  A$lcc1085 |    0000062C  A$lcc1085 |    0000062D  A$lcc1085
     0000062E  A$lcc1085 |    0000062F  A$lcc1085 |    00000632  A$lcc1085
     00000634  A$lcc1085 |    00000634  C$main.c$ |    00000634  C$main.c$
     00000634  XG$reset_ |    00000635  A$lcc1085 |    00000635  C$main.c$
     00000635  C$main.c$ |    00000635  G$reset_t |    00000635  _reset_ti
     00000638  A$lcc1085 |    0000063A  A$lcc1085 |    0000063B  A$lcc1085
     0000063D  A$lcc1085 |    0000063D  C$main.c$ |    00000640  A$lcc1085
     00000642  A$lcc1085 |    00000642  C$main.c$ |    00000645  A$lcc1085
     00000646  A$lcc1085 |    00000649  A$lcc1085 |    0000064A  A$lcc1085
     0000064D  A$lcc1085 |    0000064E  A$lcc1085 |    00000651  A$lcc1085
     00000653  A$lcc1085 |    00000653  C$main.c$ |    00000653  XG$reset_
     00000654  A$lcc1085 |    00000654  C$main.c$ |    00000654  C$main.c$
     00000654  G$frog_de |    00000654  _frog_dea |    00000657  A$lcc1085
     00000658  A$lcc1085 |    00000659  A$lcc1085 |    0000065B  A$lcc1085
     0000065B  C$main.c$ |    0000065C  A$lcc1085 |    0000065D  A$lcc1085
     0000065F  A$lcc1085 |    0000065F  C$main.c$ |    00000662  A$lcc1085
     00000664  A$lcc1085 |    00000664  C$main.c$ |    00000665  A$lcc1085
     00000665  C$main.c$ |    00000668  A$lcc1085 |    00000668  C$main.c$
     00000668  C$main.c$ |    00000668  XG$frog_d |    0000066B  A$lcc1085
     0000066B  C$main.c$ |    0000066B  C$main.c$ |    0000066B  G$init_le
     0000066B  _init_lev |    0000066E  A$lcc1085 |    0000066F  A$lcc1085
     00000672  A$lcc1085 |    00000673  A$lcc1085 |    00000676  A$lcc1085
     00000678  A$lcc1085 |    00000678  C$main.c$ |    0000067B  A$lcc1085
     0000067C  A$lcc1085 |    0000067F  A$lcc1085 |    00000680  A$lcc1085
     00000683  A$lcc1085 |    00000685  A$lcc1085 |    00000685  C$main.c$
     00000688  A$lcc1085 |    00000689  A$lcc1085 |    0000068C  A$lcc1085
     0000068D  A$lcc1085 |    00000690  A$lcc1085 |    00000692  A$lcc1085
     00000692  C$main.c$ |    00000695  A$lcc1085 |    00000696  A$lcc1085
     00000699  A$lcc1085 |    0000069A  A$lcc1085 |    0000069D  A$lcc1085
     0000069F  A$lcc1085 |    0000069F  C$main.c$ |    000006A2  A$lcc1085
     000006A3  A$lcc1085 |    000006A6  A$lcc1085 |    000006A7  A$lcc1085
     000006AA  A$lcc1085 |    000006AC  A$lcc1085 |    000006AC  C$main.c$
     000006AF  A$lcc1085 |    000006B0  A$lcc1085 |    000006B3  A$lcc1085
     000006B4  A$lcc1085 |    000006B7  A$lcc1085 |    000006B9  A$lcc1085
     000006B9  C$main.c$ |    000006BC  A$lcc1085 |    000006BD  A$lcc1085
     000006C0  A$lcc1085 |    000006C1  A$lcc1085 |    000006C2  A$lcc1085
     000006C3  A$lcc1085 |    000006C4  A$lcc1085 |    000006C7  A$lcc1085
     000006C9  A$lcc1085 |    000006C9  C$main.c$ |    000006CC  A$lcc1085
     000006CD  A$lcc1085 |    000006CF  A$lcc1085 |    000006D0  A$lcc1085
     000006D1  A$lcc1085 |    000006D4  A$lcc1085 |    000006D6  A$lcc1085
     000006D6  C$main.c$ |    000006D9  A$lcc1085 |    000006DB  A$lcc1085
     000006DB  C$main.c$ |    000006DE  A$lcc1085 |    000006E0  A$lcc1085
     000006E0  C$main.c$ |    000006E3  A$lcc1085 |    000006E5  A$lcc1085
     000006E6  A$lcc1085 |    000006E8  A$lcc1085 |    000006E8  C$main.c$
     000006EB  A$lcc1085 |    000006ED  A$lcc1085 |    000006EE  A$lcc1085
     000006F0  A$lcc1085 |    000006F0  C$main.c$ |    000006F3  A$lcc1085
     000006F5  A$lcc1085 |    000006F5  C$main.c$ |    000006F6  A$lcc1085
     000006F9  A$lcc1085 |    000006FA  A$lcc1085 |    000006FB  A$lcc1085
     000006FB  C$main.c$ |    000006FE  A$lcc1085 |    000006FE  C$main.c$
     00000701  A$lcc1085 |    00000703  A$lcc1085 |    00000703  C$main.c$
     00000706  A$lcc1085 |    00000706  C$main.c$ |    00000709  A$lcc1085
ASxxxx Linker V03.00 + NoICE + sdld,  page 9.
Hexadecimal  [32-Bits]

Area                       Addr        Size        Decimal Bytes (Attributes)
--------------------       ----        ----        ------- ----- ------------
_CODE                  00000200    000025B8 =        9656. bytes (REL,CON)

        Value  Global            Value  Global            Value  Global    
        -----  ------            -----  ------            -----  ------    
     00000709  C$main.c$ |    0000070C  A$lcc1085 |    0000070C  C$main.c$
     0000070F  A$lcc1085 |    0000070F  C$main.c$ |    00000712  A$lcc1085
     00000712  C$main.c$ |    00000714  A$lcc1085 |    00000715  A$lcc1085
     00000717  A$lcc1085 |    00000719  A$lcc1085 |    00000719  C$main.c$
     0000071C  A$lcc1085 |    0000071E  A$lcc1085 |    0000071F  A$lcc1085
     00000721  A$lcc1085 |    00000721  C$main.c$ |    00000722  A$lcc1085
     00000724  A$lcc1085 |    00000724  C$main.c$ |    00000727  A$lcc1085
     00000729  A$lcc1085 |    0000072A  A$lcc1085 |    0000072C  A$lcc1085
     0000072C  C$main.c$ |    0000072F  A$lcc1085 |    00000731  A$lcc1085
     00000732  A$lcc1085 |    00000733  A$lcc1085 |    00000734  A$lcc1085
     00000734  C$main.c$ |    00000734  XG$init_l |    00000735  A$lcc1085
     00000735  C$main.c$ |    00000735  G$move_fr |    00000735  _move_fro
     00000736  A$lcc1085 |    00000737  A$lcc1085 |    00000737  C$main.c$
     0000073A  A$lcc1085 |    0000073B  A$lcc1085 |    0000073E  A$lcc1085
     0000073E  C$main.c$ |    00000741  A$lcc1085 |    00000742  A$lcc1085
     00000744  A$lcc1085 |    00000745  A$lcc1085 |    00000746  A$lcc1085
     00000747  A$lcc1085 |    00000748  A$lcc1085 |    0000074B  A$lcc1085
     0000074D  A$lcc1085 |    0000074F  A$lcc1085 |    00000752  A$lcc1085
     00000754  A$lcc1085 |    00000757  A$lcc1085 |    00000758  A$lcc1085
     00000759  A$lcc1085 |    0000075A  A$lcc1085 |    0000075B  A$lcc1085
     0000075C  A$lcc1085 |    0000075F  A$lcc1085 |    00000760  A$lcc1085
     00000761  A$lcc1085 |    00000762  A$lcc1085 |    00000765  A$lcc1085
     00000766  A$lcc1085 |    00000769  A$lcc1085 |    0000076A  A$lcc1085
     0000076D  A$lcc1085 |    0000076E  A$lcc1085 |    0000076F  A$lcc1085
     00000771  A$lcc1085 |    00000773  A$lcc1085 |    00000775  A$lcc1085
     00000775  C$main.c$ |    00000776  A$lcc1085 |    00000778  A$lcc1085
     0000077A  A$lcc1085 |    0000077B  A$lcc1085 |    0000077D  A$lcc1085
     0000077E  A$lcc1085 |    00000781  A$lcc1085 |    00000783  A$lcc1085
     00000784  A$lcc1085 |    00000787  A$lcc1085 |    00000788  A$lcc1085
     00000789  A$lcc1085 |    0000078A  A$lcc1085 |    0000078D  A$lcc1085
     0000078E  A$lcc1085 |    0000078F  A$lcc1085 |    00000792  A$lcc1085
     00000794  A$lcc1085 |    00000796  A$lcc1085 |    00000797  A$lcc1085
     00000798  A$lcc1085 |    00000799  A$lcc1085 |    0000079A  A$lcc1085
     0000079C  A$lcc1085 |    0000079D  A$lcc1085 |    000007A0  A$lcc1085
     000007A2  A$lcc1085 |    000007A2  C$main.c$ |    000007A5  A$lcc1085
     000007A5  C$main.c$ |    000007A6  A$lcc1085 |    000007A8  A$lcc1085
     000007AB  A$lcc1085 |    000007AC  A$lcc1085 |    000007AE  A$lcc1085
     000007AF  A$lcc1085 |    000007B2  A$lcc1085 |    000007B4  A$lcc1085
     000007B5  A$lcc1085 |    000007B8  A$lcc1085 |    000007B9  A$lcc1085
     000007BA  A$lcc1085 |    000007BB  A$lcc1085 |    000007BE  A$lcc1085
     000007BF  A$lcc1085 |    000007C0  A$lcc1085 |    000007C3  A$lcc1085
     000007C5  A$lcc1085 |    000007C7  A$lcc1085 |    000007C8  A$lcc1085
     000007CA  A$lcc1085 |    000007CB  A$lcc1085 |    000007CC  A$lcc1085
     000007CD  A$lcc1085 |    000007CE  A$lcc1085 |    000007D0  A$lcc1085
     000007D1  A$lcc1085 |    000007D4  A$lcc1085 |    000007D6  A$lcc1085
     000007D6  C$main.c$ |    000007D9  A$lcc1085 |    000007D9  C$main.c$
     000007DC  A$lcc1085 |    000007DD  A$lcc1085 |    000007E0  A$lcc1085
     000007E0  C$main.c$ |    000007E3  A$lcc1085 |    000007E4  A$lcc1085
     000007E5  A$lcc1085 |    000007E6  A$lcc1085 |    000007E9  A$lcc1085
     000007EB  A$lcc1085 |    000007ED  A$lcc1085 |    000007F0  A$lcc1085
     000007F2  A$lcc1085 |    000007F5  A$lcc1085 |    000007F6  A$lcc1085
ASxxxx Linker V03.00 + NoICE + sdld,  page 10.
Hexadecimal  [32-Bits]

Area                       Addr        Size        Decimal Bytes (Attributes)
--------------------       ----        ----        ------- ----- ------------
_CODE                  00000200    000025B8 =        9656. bytes (REL,CON)

        Value  Global            Value  Global            Value  Global    
        -----  ------            -----  ------            -----  ------    
     000007F7  A$lcc1085 |    000007F8  A$lcc1085 |    000007FB  A$lcc1085
     000007FC  A$lcc1085 |    000007FD  A$lcc1085 |    000007FE  A$lcc1085
     00000801  A$lcc1085 |    00000802  A$lcc1085 |    00000805  A$lcc1085
     00000806  A$lcc1085 |    00000808  A$lcc1085 |    00000808  C$main.c$
     00000808  C$main.c$ |    00000809  A$lcc1085 |    0000080A  A$lcc1085
     0000080B  A$lcc1085 |    0000080B  C$main.c$ |    0000080C  A$lcc1085
     0000080D  A$lcc1085 |    0000080F  A$lcc1085 |    00000812  A$lcc1085
     00000814  A$lcc1085 |    00000815  A$lcc1085 |    00000818  A$lcc1085
     0000081A  A$lcc1085 |    0000081B  A$lcc1085 |    0000081E  A$lcc1085
     0000081F  A$lcc1085 |    00000820  A$lcc1085 |    00000821  A$lcc1085
     00000822  A$lcc1085 |    00000825  A$lcc1085 |    00000826  A$lcc1085
     00000827  A$lcc1085 |    00000828  A$lcc1085 |    0000082B  A$lcc1085
     0000082D  A$lcc1085 |    0000082F  A$lcc1085 |    00000830  A$lcc1085
     00000831  A$lcc1085 |    00000832  A$lcc1085 |    00000833  A$lcc1085
     00000835  A$lcc1085 |    00000836  A$lcc1085 |    00000839  A$lcc1085
     0000083B  A$lcc1085 |    0000083B  C$main.c$ |    0000083D  A$lcc1085
     0000083D  C$main.c$ |    0000083E  A$lcc1085 |    00000840  A$lcc1085
     00000843  A$lcc1085 |    00000845  A$lcc1085 |    00000847  A$lcc1085
     00000848  A$lcc1085 |    0000084B  A$lcc1085 |    0000084D  A$lcc1085
     0000084E  A$lcc1085 |    00000851  A$lcc1085 |    00000852  A$lcc1085
     00000853  A$lcc1085 |    00000854  A$lcc1085 |    00000855  A$lcc1085
     00000858  A$lcc1085 |    00000859  A$lcc1085 |    0000085A  A$lcc1085
     0000085B  A$lcc1085 |    0000085E  A$lcc1085 |    00000860  A$lcc1085
     00000862  A$lcc1085 |    00000864  A$lcc1085 |    00000866  A$lcc1085
     00000869  A$lcc1085 |    0000086B  A$lcc1085 |    0000086E  A$lcc1085
     00000870  A$lcc1085 |    00000871  A$lcc1085 |    00000872  A$lcc1085
     00000873  A$lcc1085 |    00000874  A$lcc1085 |    00000875  A$lcc1085
     00000877  A$lcc1085 |    00000878  A$lcc1085 |    0000087B  A$lcc1085
     0000087D  A$lcc1085 |    0000087D  C$main.c$ |    0000087E  A$lcc1085
     0000087F  A$lcc1085 |    0000087F  C$main.c$ |    0000087F  XG$move_f
     00000880  A$lcc1085 |    00000880  C$main.c$ |    00000880  C$main.c$
     00000880  G$animate |    00000880  XG$animat |    00000880  _animate_
     00000881  A$lcc1085 |    00000881  C$main.c$ |    00000881  C$main.c$
     00000881  G$update_ |    00000881  _update_m |    00000884  A$lcc1085
     00000885  A$lcc1085 |    00000887  A$lcc1085 |    00000887  C$main.c$
     0000088A  A$lcc1085 |    0000088A  C$main.c$ |    0000088D  A$lcc1085
     0000088F  A$lcc1085 |    00000891  A$lcc1085 |    00000894  A$lcc1085
     00000896  A$lcc1085 |    00000899  A$lcc1085 |    0000089A  A$lcc1085
     0000089D  A$lcc1085 |    0000089E  A$lcc1085 |    0000089F  A$lcc1085
     000008A0  A$lcc1085 |    000008A0  C$main.c$ |    000008A3  A$lcc1085
     000008A4  A$lcc1085 |    000008A6  A$lcc1085 |    000008A6  C$main.c$
     000008A9  A$lcc1085 |    000008A9  C$main.c$ |    000008AC  A$lcc1085
     000008AE  A$lcc1085 |    000008B0  A$lcc1085 |    000008B3  A$lcc1085
     000008B5  A$lcc1085 |    000008B8  A$lcc1085 |    000008B9  A$lcc1085
     000008BC  A$lcc1085 |    000008BD  A$lcc1085 |    000008BE  A$lcc1085
     000008BF  A$lcc1085 |    000008BF  C$main.c$ |    000008C2  A$lcc1085
     000008C3  A$lcc1085 |    000008C5  A$lcc1085 |    000008C8  A$lcc1085
     000008C9  A$lcc1085 |    000008CA  A$lcc1085 |    000008CA  C$main.c$
     000008CD  A$lcc1085 |    000008CF  A$lcc1085 |    000008CF  C$main.c$
     000008D2  A$lcc1085 |    000008D3  A$lcc1085 |    000008D4  A$lcc1085
     000008D5  A$lcc1085 |    000008D8  A$lcc1085 |    000008D9  A$lcc1085
ASxxxx Linker V03.00 + NoICE + sdld,  page 11.
Hexadecimal  [32-Bits]

Area                       Addr        Size        Decimal Bytes (Attributes)
--------------------       ----        ----        ------- ----- ------------
_CODE                  00000200    000025B8 =        9656. bytes (REL,CON)

        Value  Global            Value  Global            Value  Global    
        -----  ------            -----  ------            -----  ------    
     000008DB  A$lcc1085 |    000008DC  A$lcc1085 |    000008DD  A$lcc1085
     000008DE  A$lcc1085 |    000008DF  A$lcc1085 |    000008E0  A$lcc1085
     000008E1  A$lcc1085 |    000008E3  A$lcc1085 |    000008E5  A$lcc1085
     000008E7  A$lcc1085 |    000008E9  A$lcc1085 |    000008EA  A$lcc1085
     000008EC  A$lcc1085 |    000008EE  A$lcc1085 |    000008F0  A$lcc1085
     000008F1  A$lcc1085 |    000008F2  A$lcc1085 |    000008F2  C$main.c$
     000008F5  A$lcc1085 |    000008F6  A$lcc1085 |    000008F8  A$lcc1085
     000008F9  A$lcc1085 |    000008FA  A$lcc1085 |    000008FC  A$lcc1085
     000008FD  A$lcc1085 |    000008FD  C$main.c$ |    00000900  A$lcc1085
     00000900  C$main.c$ |    00000903  A$lcc1085 |    00000906  A$lcc1085
     00000906  C$main.c$ |    00000906  XG$update |    00000907  A$lcc1085
     00000907  C$main.c$ |    00000907  C$main.c$ |    00000907  G$paralla
     00000907  _parallax |    0000090A  A$lcc1085 |    0000090B  A$lcc1085
     0000090C  A$lcc1085 |    0000090D  A$lcc1085 |    0000090D  C$main.c$
     0000090E  A$lcc1085 |    00000910  A$lcc1085 |    00000911  A$lcc1085
     00000911  C$main.c$ |    00000912  A$lcc1085 |    00000914  A$lcc1085
     00000915  A$lcc1085 |    00000915  C$main.c$ |    00000917  A$lcc1085
     00000918  A$lcc1085 |    0000091A  A$lcc1085 |    0000091C  A$lcc1085
     0000091D  A$lcc1085 |    0000091F  A$lcc1085 |    00000922  A$lcc1085
     00000925  A$lcc1085 |    00000926  A$lcc1085 |    00000927  A$lcc1085
     00000928  A$lcc1085 |    00000928  C$main.c$ |    00000928  XG$parall
     00000929  A$lcc1085 |    00000929  C$main.c$ |    00000929  G$update_
     00000929  _update_p |    0000092C  A$lcc1085 |    0000092D  A$lcc1085
     0000092D  C$main.c$ |    0000092E  A$lcc1085 |    0000092E  C$main.c$
     00000931  A$lcc1085 |    00000933  A$lcc1085 |    00000935  A$lcc1085
     00000936  A$lcc1085 |    00000937  A$lcc1085 |    00000939  A$lcc1085
     00000939  C$main.c$ |    0000093A  A$lcc1085 |    0000093C  A$lcc1085
     0000093E  A$lcc1085 |    0000093E  C$main.c$ |    00000940  A$lcc1085
     00000942  A$lcc1085 |    00000942  C$main.c$ |    00000943  A$lcc1085
     00000945  A$lcc1085 |    00000945  C$main.c$ |    00000948  A$lcc1085
     00000949  A$lcc1085 |    0000094B  A$lcc1085 |    0000094D  A$lcc1085
     0000094D  C$main.c$ |    0000094F  A$lcc1085 |    0000094F  C$main.c$
     00000952  A$lcc1085 |    00000953  A$lcc1085 |    00000955  A$lcc1085
     00000958  A$lcc1085 |    00000959  A$lcc1085 |    0000095C  A$lcc1085
     0000095D  A$lcc1085 |    0000095D  C$main.c$ |    0000095F  A$lcc1085
     0000095F  C$main.c$ |    00000962  A$lcc1085 |    00000963  A$lcc1085
     00000965  A$lcc1085 |    00000965  C$main.c$ |    00000967  A$lcc1085
     00000967  C$main.c$ |    00000969  A$lcc1085 |    0000096C  A$lcc1085
     0000096D  A$lcc1085 |    00000970  A$lcc1085 |    00000971  A$lcc1085
     00000971  C$main.c$ |    00000971  C$main.c$ |    00000974  A$lcc1085
     00000975  A$lcc1085 |    00000975  C$main.c$ |    00000975  XG$update
     00000976  G$black$0 |    00000976  _black    |    00000986  A$lcc1085
     00000986  C$main.c$ |    00000986  G$scroll_ |    00000986  _scroll_c
     00000987  A$lcc1085 |    00000987  C$main.c$ |    0000098A  A$lcc1085
     0000098B  A$lcc1085 |    0000098D  A$lcc1085 |    00000990  A$lcc1085
     00000993  A$lcc1085 |    00000994  A$lcc1085 |    00000995  A$lcc1085
     00000997  A$lcc1085 |    00000997  C$main.c$ |    0000099A  A$lcc1085
     0000099B  A$lcc1085 |    0000099C  A$lcc1085 |    0000099D  A$lcc1085
     0000099D  C$main.c$ |    000009A0  A$lcc1085 |    000009A1  A$lcc1085
     000009A2  A$lcc1085 |    000009A3  A$lcc1085 |    000009A3  C$main.c$
     000009A6  A$lcc1085 |    000009A7  A$lcc1085 |    000009A8  A$lcc1085
ASxxxx Linker V03.00 + NoICE + sdld,  page 12.
Hexadecimal  [32-Bits]

Area                       Addr        Size        Decimal Bytes (Attributes)
--------------------       ----        ----        ------- ----- ------------
_CODE                  00000200    000025B8 =        9656. bytes (REL,CON)

        Value  Global            Value  Global            Value  Global    
        -----  ------            -----  ------            -----  ------    
     000009A9  A$lcc1085 |    000009A9  C$main.c$ |    000009AC  A$lcc1085
     000009AD  A$lcc1085 |    000009AF  A$lcc1085 |    000009B2  A$lcc1085
     000009B3  A$lcc1085 |    000009B3  C$main.c$ |    000009B3  C$main.c$
     000009B4  A$lcc1085 |    000009B6  A$lcc1085 |    000009B6  C$main.c$
     000009B9  A$lcc1085 |    000009BA  A$lcc1085 |    000009BB  A$lcc1085
     000009BC  A$lcc1085 |    000009BD  A$lcc1085 |    000009C0  A$lcc1085
     000009C1  A$lcc1085 |    000009C2  A$lcc1085 |    000009C3  A$lcc1085
     000009C3  C$main.c$ |    000009C6  A$lcc1085 |    000009C6  C$main.c$
     000009C9  A$lcc1085 |    000009CB  A$lcc1085 |    000009CD  A$lcc1085
     000009CD  C$main.c$ |    000009D0  A$lcc1085 |    000009D1  A$lcc1085
     000009D2  A$lcc1085 |    000009D3  A$lcc1085 |    000009D4  A$lcc1085
     000009D7  A$lcc1085 |    000009D8  A$lcc1085 |    000009D9  A$lcc1085
     000009DA  A$lcc1085 |    000009DA  C$main.c$ |    000009DD  A$lcc1085
     000009DD  C$main.c$ |    000009E0  A$lcc1085 |    000009E1  A$lcc1085
     000009E3  A$lcc1085 |    000009E6  A$lcc1085 |    000009E9  A$lcc1085
     000009EA  A$lcc1085 |    000009EB  A$lcc1085 |    000009ED  A$lcc1085
     000009ED  C$main.c$ |    000009F0  A$lcc1085 |    000009F1  A$lcc1085
     000009F2  A$lcc1085 |    000009F3  A$lcc1085 |    000009F3  C$main.c$
     000009F6  A$lcc1085 |    000009F7  A$lcc1085 |    000009F9  A$lcc1085
     000009F9  C$main.c$ |    000009FC  A$lcc1085 |    000009FD  A$lcc1085
     000009FE  A$lcc1085 |    000009FF  A$lcc1085 |    00000A00  A$lcc1085
     00000A03  A$lcc1085 |    00000A04  A$lcc1085 |    00000A05  A$lcc1085
     00000A06  A$lcc1085 |    00000A09  A$lcc1085 |    00000A0B  A$lcc1085
     00000A0C  A$lcc1085 |    00000A0F  A$lcc1085 |    00000A10  A$lcc1085
     00000A11  A$lcc1085 |    00000A12  A$lcc1085 |    00000A15  A$lcc1085
     00000A16  A$lcc1085 |    00000A17  A$lcc1085 |    00000A18  A$lcc1085
     00000A1B  A$lcc1085 |    00000A1D  A$lcc1085 |    00000A1F  A$lcc1085
     00000A20  A$lcc1085 |    00000A21  A$lcc1085 |    00000A22  A$lcc1085
     00000A23  A$lcc1085 |    00000A25  A$lcc1085 |    00000A26  A$lcc1085
     00000A29  A$lcc1085 |    00000A2B  A$lcc1085 |    00000A2B  C$main.c$
     00000A2E  A$lcc1085 |    00000A2E  C$main.c$ |    00000A31  A$lcc1085
     00000A32  A$lcc1085 |    00000A34  A$lcc1085 |    00000A34  C$main.c$
     00000A37  A$lcc1085 |    00000A39  A$lcc1085 |    00000A3B  A$lcc1085
     00000A3B  C$main.c$ |    00000A3E  A$lcc1085 |    00000A3F  A$lcc1085
     00000A40  A$lcc1085 |    00000A41  A$lcc1085 |    00000A42  A$lcc1085
     00000A45  A$lcc1085 |    00000A46  A$lcc1085 |    00000A47  A$lcc1085
     00000A48  A$lcc1085 |    00000A48  C$main.c$ |    00000A4B  A$lcc1085
     00000A4B  C$main.c$ |    00000A4E  A$lcc1085 |    00000A50  A$lcc1085
     00000A52  A$lcc1085 |    00000A52  C$main.c$ |    00000A55  A$lcc1085
     00000A56  A$lcc1085 |    00000A57  A$lcc1085 |    00000A58  A$lcc1085
     00000A58  C$main.c$ |    00000A5B  A$lcc1085 |    00000A5C  A$lcc1085
     00000A5D  A$lcc1085 |    00000A5E  A$lcc1085 |    00000A5E  C$main.c$
     00000A61  A$lcc1085 |    00000A62  A$lcc1085 |    00000A63  A$lcc1085
     00000A64  A$lcc1085 |    00000A64  C$main.c$ |    00000A67  A$lcc1085
     00000A68  A$lcc1085 |    00000A69  A$lcc1085 |    00000A6A  A$lcc1085
     00000A6A  C$main.c$ |    00000A6D  A$lcc1085 |    00000A6E  A$lcc1085
     00000A70  A$lcc1085 |    00000A70  C$main.c$ |    00000A73  A$lcc1085
     00000A75  A$lcc1085 |    00000A77  A$lcc1085 |    00000A77  C$main.c$
     00000A7A  A$lcc1085 |    00000A7B  A$lcc1085 |    00000A7C  A$lcc1085
     00000A7D  A$lcc1085 |    00000A7E  A$lcc1085 |    00000A81  A$lcc1085
     00000A82  A$lcc1085 |    00000A83  A$lcc1085 |    00000A84  A$lcc1085
ASxxxx Linker V03.00 + NoICE + sdld,  page 13.
Hexadecimal  [32-Bits]

Area                       Addr        Size        Decimal Bytes (Attributes)
--------------------       ----        ----        ------- ----- ------------
_CODE                  00000200    000025B8 =        9656. bytes (REL,CON)

        Value  Global            Value  Global            Value  Global    
        -----  ------            -----  ------            -----  ------    
     00000A84  C$main.c$ |    00000A87  A$lcc1085 |    00000A87  C$main.c$
     00000A8A  A$lcc1085 |    00000A8B  A$lcc1085 |    00000A8D  A$lcc1085
     00000A90  A$lcc1085 |    00000A93  A$lcc1085 |    00000A94  A$lcc1085
     00000A95  A$lcc1085 |    00000A97  A$lcc1085 |    00000A97  C$main.c$
     00000A9A  A$lcc1085 |    00000A9B  A$lcc1085 |    00000A9C  A$lcc1085
     00000A9D  A$lcc1085 |    00000A9D  C$main.c$ |    00000AA0  A$lcc1085
     00000AA1  A$lcc1085 |    00000AA2  A$lcc1085 |    00000AA3  A$lcc1085
     00000AA3  C$main.c$ |    00000AA6  A$lcc1085 |    00000AA7  A$lcc1085
     00000AA8  A$lcc1085 |    00000AA8  C$main.c$ |    00000AA8  XG$scroll
     00000AA9  A$lcc1085 |    00000AA9  C$main.c$ |    00000AA9  C$main.c$
     00000AA9  G$pause_g |    00000AA9  _pause_ga |    00000AAC  A$lcc1085
     00000AAE  A$lcc1085 |    00000AAE  C$main.c$ |    00000AB1  A$lcc1085
     00000AB2  A$lcc1085 |    00000AB5  A$lcc1085 |    00000AB6  A$lcc1085
     00000AB9  A$lcc1085 |    00000ABA  A$lcc1085 |    00000ABB  A$lcc1085
     00000ABC  A$lcc1085 |    00000ABC  C$main.c$ |    00000ABF  A$lcc1085
     00000AC0  A$lcc1085 |    00000AC1  A$lcc1085 |    00000AC2  A$lcc1085
     00000AC2  C$main.c$ |    00000AC4  A$lcc1085 |    00000AC5  A$lcc1085
     00000AC6  A$lcc1085 |    00000AC9  A$lcc1085 |    00000ACA  A$lcc1085
     00000ACB  A$lcc1085 |    00000ACC  A$lcc1085 |    00000ACD  A$lcc1085
     00000AD0  A$lcc1085 |    00000AD2  A$lcc1085 |    00000AD2  C$main.c$
     00000AD5  A$lcc1085 |    00000AD6  A$lcc1085 |    00000AD8  A$lcc1085
     00000AD9  A$lcc1085 |    00000ADA  A$lcc1085 |    00000ADA  C$main.c$
     00000ADB  A$lcc1085 |    00000ADB  C$main.c$ |    00000ADB  XG$pause_
     00000ADD  A$lcc1085 |    00000ADD  C$main.c$ |    00000ADD  C$main.c$
     00000ADD  G$unpause |    00000ADD  _unpause_ |    00000AE0  A$lcc1085
     00000AE2  A$lcc1085 |    00000AE2  C$main.c$ |    00000AE5  A$lcc1085
     00000AE6  A$lcc1085 |    00000AE9  A$lcc1085 |    00000AEA  A$lcc1085
     00000AED  A$lcc1085 |    00000AEE  A$lcc1085 |    00000AEF  A$lcc1085
     00000AF0  A$lcc1085 |    00000AF0  C$main.c$ |    00000AF2  A$lcc1085
     00000AF3  A$lcc1085 |    00000AF4  A$lcc1085 |    00000AF5  A$lcc1085
     00000AF5  C$main.c$ |    00000AF6  A$lcc1085 |    00000AF7  A$lcc1085
     00000AF8  A$lcc1085 |    00000AFB  A$lcc1085 |    00000AFC  A$lcc1085
     00000AFD  A$lcc1085 |    00000AFE  A$lcc1085 |    00000AFF  A$lcc1085
     00000B02  A$lcc1085 |    00000B04  A$lcc1085 |    00000B04  C$main.c$
     00000B07  A$lcc1085 |    00000B08  A$lcc1085 |    00000B0A  A$lcc1085
     00000B0B  A$lcc1085 |    00000B0C  A$lcc1085 |    00000B0C  C$main.c$
     00000B0D  A$lcc1085 |    00000B0D  C$main.c$ |    00000B0D  XG$unpaus
     00000B0F  A$lcc1085 |    00000B0F  C$main.c$ |    00000B0F  G$drain_t
     00000B0F  _drain_ti |    00000B10  A$lcc1085 |    00000B11  A$lcc1085
     00000B11  C$main.c$ |    00000B14  A$lcc1085 |    00000B15  A$lcc1085
     00000B17  A$lcc1085 |    00000B18  A$lcc1085 |    00000B1A  A$lcc1085
     00000B1C  A$lcc1085 |    00000B1D  A$lcc1085 |    00000B1D  C$main.c$
     00000B1E  A$lcc1085 |    00000B1F  A$lcc1085 |    00000B21  A$lcc1085
     00000B23  A$lcc1085 |    00000B26  A$lcc1085 |    00000B27  A$lcc1085
     00000B29  A$lcc1085 |    00000B2B  A$lcc1085 |    00000B2D  A$lcc1085
     00000B2F  A$lcc1085 |    00000B31  A$lcc1085 |    00000B33  A$lcc1085
     00000B34  A$lcc1085 |    00000B34  C$main.c$ |    00000B36  A$lcc1085
     00000B37  A$lcc1085 |    00000B39  A$lcc1085 |    00000B3A  A$lcc1085
     00000B3D  A$lcc1085 |    00000B3E  A$lcc1085 |    00000B3F  A$lcc1085
     00000B3F  C$main.c$ |    00000B42  A$lcc1085 |    00000B43  A$lcc1085
     00000B46  A$lcc1085 |    00000B47  A$lcc1085 |    00000B49  A$lcc1085
ASxxxx Linker V03.00 + NoICE + sdld,  page 14.
Hexadecimal  [32-Bits]

Area                       Addr        Size        Decimal Bytes (Attributes)
--------------------       ----        ----        ------- ----- ------------
_CODE                  00000200    000025B8 =        9656. bytes (REL,CON)

        Value  Global            Value  Global            Value  Global    
        -----  ------            -----  ------            -----  ------    
     00000B4A  A$lcc1085 |    00000B4D  A$lcc1085 |    00000B4E  A$lcc1085
     00000B4F  A$lcc1085 |    00000B50  A$lcc1085 |    00000B51  A$lcc1085
     00000B54  A$lcc1085 |    00000B55  A$lcc1085 |    00000B56  A$lcc1085
     00000B57  A$lcc1085 |    00000B58  A$lcc1085 |    00000B59  A$lcc1085
     00000B5A  A$lcc1085 |    00000B5B  A$lcc1085 |    00000B5E  A$lcc1085
     00000B5F  A$lcc1085 |    00000B60  A$lcc1085 |    00000B60  C$main.c$
     00000B62  A$lcc1085 |    00000B63  A$lcc1085 |    00000B65  A$lcc1085
     00000B67  A$lcc1085 |    00000B68  A$lcc1085 |    00000B6A  A$lcc1085
     00000B6B  A$lcc1085 |    00000B6C  A$lcc1085 |    00000B6E  A$lcc1085
     00000B6F  A$lcc1085 |    00000B70  A$lcc1085 |    00000B72  A$lcc1085
     00000B73  A$lcc1085 |    00000B74  A$lcc1085 |    00000B76  A$lcc1085
     00000B76  C$main.c$ |    00000B78  A$lcc1085 |    00000B79  A$lcc1085
     00000B7B  A$lcc1085 |    00000B7C  A$lcc1085 |    00000B7E  A$lcc1085
     00000B7F  A$lcc1085 |    00000B80  A$lcc1085 |    00000B81  A$lcc1085
     00000B82  A$lcc1085 |    00000B85  A$lcc1085 |    00000B87  A$lcc1085
     00000B87  C$main.c$ |    00000B8A  A$lcc1085 |    00000B8B  A$lcc1085
     00000B8B  C$main.c$ |    00000B8E  A$lcc1085 |    00000B8F  A$lcc1085
     00000B91  A$lcc1085 |    00000B92  A$lcc1085 |    00000B93  A$lcc1085
     00000B95  A$lcc1085 |    00000B96  A$lcc1085 |    00000B96  C$main.c$
     00000B99  A$lcc1085 |    00000B99  C$main.c$ |    00000B9C  A$lcc1085
     00000B9D  A$lcc1085 |    00000B9F  A$lcc1085 |    00000BA0  A$lcc1085
     00000BA1  A$lcc1085 |    00000BA1  C$main.c$ |    00000BA3  A$lcc1085
     00000BA4  A$lcc1085 |    00000BA6  A$lcc1085 |    00000BA8  A$lcc1085
     00000BA8  C$main.c$ |    00000BAB  A$lcc1085 |    00000BAD  A$lcc1085
     00000BAD  C$main.c$ |    00000BB0  A$lcc1085 |    00000BB2  A$lcc1085
     00000BB3  A$lcc1085 |    00000BB4  A$lcc1085 |    00000BB4  C$main.c$
     00000BB4  XG$drain_ |    00000BB5  A$lcc1085 |    00000BB5  C$main.c$
     00000BB5  G$reload_ |    00000BB5  _reload_t |    00000BB6  A$lcc1085
     00000BB7  A$lcc1085 |    00000BB7  C$main.c$ |    00000BBA  A$lcc1085
     00000BBB  A$lcc1085 |    00000BBD  A$lcc1085 |    00000BBE  A$lcc1085
     00000BC0  A$lcc1085 |    00000BC2  A$lcc1085 |    00000BC3  A$lcc1085
     00000BC3  C$main.c$ |    00000BC4  A$lcc1085 |    00000BC5  A$lcc1085
     00000BC7  A$lcc1085 |    00000BC9  A$lcc1085 |    00000BCC  A$lcc1085
     00000BCD  A$lcc1085 |    00000BCF  A$lcc1085 |    00000BD1  A$lcc1085
     00000BD3  A$lcc1085 |    00000BD5  A$lcc1085 |    00000BD7  A$lcc1085
     00000BD9  A$lcc1085 |    00000BD9  C$main.c$ |    00000BDB  A$lcc1085
     00000BDC  A$lcc1085 |    00000BDD  A$lcc1085 |    00000BDF  A$lcc1085
     00000BE0  A$lcc1085 |    00000BE3  A$lcc1085 |    00000BE4  A$lcc1085
     00000BE5  A$lcc1085 |    00000BE5  C$main.c$ |    00000BE8  A$lcc1085
     00000BE9  A$lcc1085 |    00000BEC  A$lcc1085 |    00000BED  A$lcc1085
     00000BEF  A$lcc1085 |    00000BEF  C$main.c$ |    00000BF0  A$lcc1085
     00000BF1  A$lcc1085 |    00000BF2  A$lcc1085 |    00000BF4  A$lcc1085
     00000BF6  A$lcc1085 |    00000BF7  A$lcc1085 |    00000BF8  A$lcc1085
     00000BF9  A$lcc1085 |    00000BFA  A$lcc1085 |    00000BFB  A$lcc1085
     00000BFC  A$lcc1085 |    00000BFE  A$lcc1085 |    00000BFF  A$lcc1085
     00000C00  A$lcc1085 |    00000C02  A$lcc1085 |    00000C03  A$lcc1085
     00000C04  A$lcc1085 |    00000C06  A$lcc1085 |    00000C06  C$main.c$
     00000C08  A$lcc1085 |    00000C09  A$lcc1085 |    00000C0B  A$lcc1085
     00000C0C  A$lcc1085 |    00000C0D  A$lcc1085 |    00000C0F  A$lcc1085
     00000C10  A$lcc1085 |    00000C11  A$lcc1085 |    00000C12  A$lcc1085
     00000C13  A$lcc1085 |    00000C16  A$lcc1085 |    00000C18  A$lcc1085
ASxxxx Linker V03.00 + NoICE + sdld,  page 15.
Hexadecimal  [32-Bits]

Area                       Addr        Size        Decimal Bytes (Attributes)
--------------------       ----        ----        ------- ----- ------------
_CODE                  00000200    000025B8 =        9656. bytes (REL,CON)

        Value  Global            Value  Global            Value  Global    
        -----  ------            -----  ------            -----  ------    
     00000C18  C$main.c$ |    00000C1B  A$lcc1085 |    00000C1C  A$lcc1085
     00000C1C  C$main.c$ |    00000C1E  A$lcc1085 |    00000C1F  A$lcc1085
     00000C21  A$lcc1085 |    00000C23  A$lcc1085 |    00000C23  C$main.c$
     00000C26  A$lcc1085 |    00000C26  C$main.c$ |    00000C29  A$lcc1085
     00000C29  C$main.c$ |    00000C2C  A$lcc1085 |    00000C2E  A$lcc1085
     00000C2F  A$lcc1085 |    00000C30  A$lcc1085 |    00000C30  C$main.c$
     00000C30  XG$reload |    00000C31  A$lcc1085 |    00000C31  C$main.c$
     00000C31  C$main.c$ |    00000C31  G$pts_200 |    00000C31  _pts_200_
     00000C34  A$lcc1085 |    00000C35  A$lcc1085 |    00000C37  A$lcc1085
     00000C38  A$lcc1085 |    00000C39  A$lcc1085 |    00000C3B  A$lcc1085
     00000C3C  A$lcc1085 |    00000C3C  C$main.c$ |    00000C3F  A$lcc1085
     00000C3F  C$main.c$ |    00000C42  A$lcc1085 |    00000C44  A$lcc1085
     00000C44  C$main.c$ |    00000C44  XG$pts_20 |    00000C45  A$lcc1085
     00000C45  C$main.c$ |    00000C45  C$main.c$ |    00000C45  G$pts_200
     00000C45  _pts_200_ |    00000C48  A$lcc1085 |    00000C49  A$lcc1085
     00000C4B  A$lcc1085 |    00000C4C  A$lcc1085 |    00000C4D  A$lcc1085
     00000C4F  A$lcc1085 |    00000C50  A$lcc1085 |    00000C50  C$main.c$
     00000C53  A$lcc1085 |    00000C53  C$main.c$ |    00000C53  C$main.c$
     00000C53  XG$pts_20 |    00000C56  A$lcc1085 |    00000C56  C$main.c$
     00000C56  G$collide |    00000C56  _collide_ |    00000C58  A$lcc1085
     00000C5A  A$lcc1085 |    00000C5B  A$lcc1085 |    00000C5C  A$lcc1085
     00000C5D  A$lcc1085 |    00000C5D  C$main.c$ |    00000C60  A$lcc1085
     00000C61  A$lcc1085 |    00000C62  A$lcc1085 |    00000C64  A$lcc1085
     00000C66  A$lcc1085 |    00000C66  C$main.c$ |    00000C67  A$lcc1085
     00000C68  A$lcc1085 |    00000C6A  A$lcc1085 |    00000C6A  C$main.c$
     00000C6B  A$lcc1085 |    00000C6C  A$lcc1085 |    00000C6D  A$lcc1085
     00000C6E  A$lcc1085 |    00000C6F  A$lcc1085 |    00000C70  A$lcc1085
     00000C71  A$lcc1085 |    00000C73  A$lcc1085 |    00000C74  A$lcc1085
     00000C76  A$lcc1085 |    00000C77  A$lcc1085 |    00000C78  A$lcc1085
     00000C79  A$lcc1085 |    00000C7A  A$lcc1085 |    00000C7A  C$main.c$
     00000C7C  A$lcc1085 |    00000C7D  A$lcc1085 |    00000C7F  A$lcc1085
     00000C80  A$lcc1085 |    00000C81  A$lcc1085 |    00000C82  A$lcc1085
     00000C82  C$main.c$ |    00000C84  A$lcc1085 |    00000C85  A$lcc1085
     00000C86  A$lcc1085 |    00000C87  A$lcc1085 |    00000C8A  A$lcc1085
     00000C8B  A$lcc1085 |    00000C8C  A$lcc1085 |    00000C8D  A$lcc1085
     00000C8F  A$lcc1085 |    00000C90  A$lcc1085 |    00000C91  A$lcc1085
     00000C92  A$lcc1085 |    00000C94  A$lcc1085 |    00000C95  A$lcc1085
     00000C96  A$lcc1085 |    00000C97  A$lcc1085 |    00000C98  A$lcc1085
     00000C99  A$lcc1085 |    00000C9A  A$lcc1085 |    00000C9C  A$lcc1085
     00000C9C  C$main.c$ |    00000C9D  A$lcc1085 |    00000C9E  A$lcc1085
     00000C9F  A$lcc1085 |    00000CA0  A$lcc1085 |    00000CA1  A$lcc1085
     00000CA3  A$lcc1085 |    00000CA3  C$main.c$ |    00000CA4  A$lcc1085
     00000CA5  A$lcc1085 |    00000CA7  A$lcc1085 |    00000CA8  A$lcc1085
     00000CAA  A$lcc1085 |    00000CAC  A$lcc1085 |    00000CAD  A$lcc1085
     00000CAF  A$lcc1085 |    00000CB0  A$lcc1085 |    00000CB2  A$lcc1085
     00000CB4  A$lcc1085 |    00000CB5  A$lcc1085 |    00000CB7  A$lcc1085
     00000CB8  A$lcc1085 |    00000CBA  A$lcc1085 |    00000CBC  A$lcc1085
     00000CBD  A$lcc1085 |    00000CBE  A$lcc1085 |    00000CC0  A$lcc1085
     00000CC1  A$lcc1085 |    00000CC3  A$lcc1085 |    00000CC4  A$lcc1085
     00000CC5  A$lcc1085 |    00000CC6  A$lcc1085 |    00000CC9  A$lcc1085
     00000CCA  A$lcc1085 |    00000CCB  A$lcc1085 |    00000CCC  A$lcc1085
ASxxxx Linker V03.00 + NoICE + sdld,  page 16.
Hexadecimal  [32-Bits]

Area                       Addr        Size        Decimal Bytes (Attributes)
--------------------       ----        ----        ------- ----- ------------
_CODE                  00000200    000025B8 =        9656. bytes (REL,CON)

        Value  Global            Value  Global            Value  Global    
        -----  ------            -----  ------            -----  ------    
     00000CCD  A$lcc1085 |    00000CCE  A$lcc1085 |    00000CCF  A$lcc1085
     00000CD0  A$lcc1085 |    00000CD1  A$lcc1085 |    00000CD4  A$lcc1085
     00000CD5  A$lcc1085 |    00000CD6  A$lcc1085 |    00000CD7  A$lcc1085
     00000CD9  A$lcc1085 |    00000CDA  A$lcc1085 |    00000CDB  A$lcc1085
     00000CDD  A$lcc1085 |    00000CDE  A$lcc1085 |    00000CDF  A$lcc1085
     00000CE0  A$lcc1085 |    00000CE2  A$lcc1085 |    00000CE3  A$lcc1085
     00000CE4  A$lcc1085 |    00000CE5  A$lcc1085 |    00000CE6  A$lcc1085
     00000CE8  A$lcc1085 |    00000CE9  A$lcc1085 |    00000CEA  A$lcc1085
     00000CEB  A$lcc1085 |    00000CEC  A$lcc1085 |    00000CED  A$lcc1085
     00000CEF  A$lcc1085 |    00000CF0  A$lcc1085 |    00000CF1  A$lcc1085
     00000CF2  A$lcc1085 |    00000CF3  A$lcc1085 |    00000CF4  A$lcc1085
     00000CF6  A$lcc1085 |    00000CF7  A$lcc1085 |    00000CF8  A$lcc1085
     00000CF9  A$lcc1085 |    00000CFB  A$lcc1085 |    00000CFC  A$lcc1085
     00000CFD  A$lcc1085 |    00000CFE  A$lcc1085 |    00000D01  A$lcc1085
     00000D02  A$lcc1085 |    00000D04  A$lcc1085 |    00000D04  C$main.c$
     00000D07  A$lcc1085 |    00000D08  A$lcc1085 |    00000D09  A$lcc1085
     00000D0A  A$lcc1085 |    00000D0B  A$lcc1085 |    00000D0D  A$lcc1085
     00000D0E  A$lcc1085 |    00000D10  A$lcc1085 |    00000D10  C$main.c$
     00000D12  A$lcc1085 |    00000D13  A$lcc1085 |    00000D14  A$lcc1085
     00000D15  A$lcc1085 |    00000D17  A$lcc1085 |    00000D17  C$main.c$
     00000D19  A$lcc1085 |    00000D1A  A$lcc1085 |    00000D1B  A$lcc1085
     00000D1C  A$lcc1085 |    00000D1D  A$lcc1085 |    00000D1E  A$lcc1085
     00000D1F  A$lcc1085 |    00000D22  A$lcc1085 |    00000D23  A$lcc1085
     00000D24  A$lcc1085 |    00000D25  A$lcc1085 |    00000D28  A$lcc1085
     00000D29  A$lcc1085 |    00000D2A  A$lcc1085 |    00000D2B  A$lcc1085
     00000D2D  A$lcc1085 |    00000D2E  A$lcc1085 |    00000D2F  A$lcc1085
     00000D32  A$lcc1085 |    00000D33  A$lcc1085 |    00000D33  C$main.c$
     00000D36  A$lcc1085 |    00000D38  A$lcc1085 |    00000D3A  A$lcc1085
     00000D3A  C$main.c$ |    00000D3B  A$lcc1085 |    00000D3D  A$lcc1085
     00000D3E  A$lcc1085 |    00000D40  A$lcc1085 |    00000D40  C$main.c$
     00000D43  A$lcc1085 |    00000D44  A$lcc1085 |    00000D46  A$lcc1085
     00000D46  C$main.c$ |    00000D49  A$lcc1085 |    00000D4B  A$lcc1085
     00000D4B  C$main.c$ |    00000D4B  XG$collid |    00000D4C  A$lcc1085
     00000D4C  C$main.c$ |    00000D4C  G$win_che |    00000D4C  _win_chec
     00000D4E  A$lcc1085 |    00000D50  A$lcc1085 |    00000D51  A$lcc1085
     00000D51  C$main.c$ |    00000D53  A$lcc1085 |    00000D54  A$lcc1085
     00000D55  A$lcc1085 |    00000D56  A$lcc1085 |    00000D57  A$lcc1085
     00000D58  A$lcc1085 |    00000D59  A$lcc1085 |    00000D5A  A$lcc1085
     00000D5D  A$lcc1085 |    00000D5E  A$lcc1085 |    00000D5F  A$lcc1085
     00000D60  A$lcc1085 |    00000D62  A$lcc1085 |    00000D63  A$lcc1085
     00000D64  A$lcc1085 |    00000D65  A$lcc1085 |    00000D67  A$lcc1085
     00000D68  A$lcc1085 |    00000D69  A$lcc1085 |    00000D6A  A$lcc1085
     00000D6B  A$lcc1085 |    00000D6D  A$lcc1085 |    00000D6F  A$lcc1085
     00000D70  A$lcc1085 |    00000D71  A$lcc1085 |    00000D72  A$lcc1085
     00000D73  A$lcc1085 |    00000D74  A$lcc1085 |    00000D75  A$lcc1085
     00000D78  A$lcc1085 |    00000D79  A$lcc1085 |    00000D7A  A$lcc1085
     00000D7B  A$lcc1085 |    00000D7C  A$lcc1085 |    00000D7D  A$lcc1085
     00000D7E  A$lcc1085 |    00000D80  A$lcc1085 |    00000D82  A$lcc1085
     00000D83  A$lcc1085 |    00000D85  A$lcc1085 |    00000D86  A$lcc1085
     00000D88  A$lcc1085 |    00000D89  A$lcc1085 |    00000D8B  A$lcc1085
     00000D8C  A$lcc1085 |    00000D8E  A$lcc1085 |    00000D8F  A$lcc1085
ASxxxx Linker V03.00 + NoICE + sdld,  page 17.
Hexadecimal  [32-Bits]

Area                       Addr        Size        Decimal Bytes (Attributes)
--------------------       ----        ----        ------- ----- ------------
_CODE                  00000200    000025B8 =        9656. bytes (REL,CON)

        Value  Global            Value  Global            Value  Global    
        -----  ------            -----  ------            -----  ------    
     00000D91  A$lcc1085 |    00000D91  C$main.c$ |    00000D93  A$lcc1085
     00000D94  A$lcc1085 |    00000D96  A$lcc1085 |    00000D97  A$lcc1085
     00000D98  A$lcc1085 |    00000D99  A$lcc1085 |    00000D9A  A$lcc1085
     00000D9B  A$lcc1085 |    00000D9C  A$lcc1085 |    00000D9F  A$lcc1085
     00000DA0  A$lcc1085 |    00000DA1  A$lcc1085 |    00000DA2  A$lcc1085
     00000DA4  A$lcc1085 |    00000DA5  A$lcc1085 |    00000DA6  A$lcc1085
     00000DA7  A$lcc1085 |    00000DA9  A$lcc1085 |    00000DAA  A$lcc1085
     00000DAB  A$lcc1085 |    00000DAC  A$lcc1085 |    00000DAD  A$lcc1085
     00000DAF  A$lcc1085 |    00000DB1  A$lcc1085 |    00000DB3  A$lcc1085
     00000DB4  A$lcc1085 |    00000DB5  A$lcc1085 |    00000DB6  A$lcc1085
     00000DB9  A$lcc1085 |    00000DBA  A$lcc1085 |    00000DBB  A$lcc1085
     00000DBC  A$lcc1085 |    00000DBE  A$lcc1085 |    00000DC0  A$lcc1085
     00000DC2  A$lcc1085 |    00000DC4  A$lcc1085 |    00000DC6  A$lcc1085
     00000DC8  A$lcc1085 |    00000DC8  C$main.c$ |    00000DCA  A$lcc1085
     00000DCB  A$lcc1085 |    00000DCC  A$lcc1085 |    00000DCD  A$lcc1085
     00000DD0  A$lcc1085 |    00000DD1  A$lcc1085 |    00000DD2  A$lcc1085
     00000DD3  A$lcc1085 |    00000DD5  A$lcc1085 |    00000DD6  A$lcc1085
     00000DD7  A$lcc1085 |    00000DD8  A$lcc1085 |    00000DDA  A$lcc1085
     00000DDB  A$lcc1085 |    00000DDC  A$lcc1085 |    00000DDD  A$lcc1085
     00000DDE  A$lcc1085 |    00000DDF  A$lcc1085 |    00000DE0  A$lcc1085
     00000DE1  A$lcc1085 |    00000DE2  A$lcc1085 |    00000DE4  A$lcc1085
     00000DE6  A$lcc1085 |    00000DE7  A$lcc1085 |    00000DE8  A$lcc1085
     00000DE9  A$lcc1085 |    00000DEA  A$lcc1085 |    00000DEB  A$lcc1085
     00000DEC  A$lcc1085 |    00000DEF  A$lcc1085 |    00000DF0  A$lcc1085
     00000DF1  A$lcc1085 |    00000DF2  A$lcc1085 |    00000DF4  A$lcc1085
     00000DF5  A$lcc1085 |    00000DF6  A$lcc1085 |    00000DF7  A$lcc1085
     00000DF9  A$lcc1085 |    00000DFA  A$lcc1085 |    00000DFC  A$lcc1085
     00000DFD  A$lcc1085 |    00000DFE  A$lcc1085 |    00000DFF  A$lcc1085
     00000E01  A$lcc1085 |    00000E03  A$lcc1085 |    00000E05  A$lcc1085
     00000E07  A$lcc1085 |    00000E09  A$lcc1085 |    00000E0B  A$lcc1085
     00000E0B  C$main.c$ |    00000E0D  A$lcc1085 |    00000E0E  A$lcc1085
     00000E10  A$lcc1085 |    00000E11  A$lcc1085 |    00000E13  A$lcc1085
     00000E14  A$lcc1085 |    00000E16  A$lcc1085 |    00000E17  A$lcc1085
     00000E19  A$lcc1085 |    00000E1B  A$lcc1085 |    00000E1D  A$lcc1085
     00000E1E  A$lcc1085 |    00000E20  A$lcc1085 |    00000E21  A$lcc1085
     00000E23  A$lcc1085 |    00000E24  A$lcc1085 |    00000E25  A$lcc1085
     00000E26  A$lcc1085 |    00000E27  A$lcc1085 |    00000E28  A$lcc1085
     00000E29  A$lcc1085 |    00000E29  C$main.c$ |    00000E2B  A$lcc1085
     00000E2C  A$lcc1085 |    00000E2D  A$lcc1085 |    00000E2E  A$lcc1085
     00000E2F  A$lcc1085 |    00000E30  A$lcc1085 |    00000E31  A$lcc1085
     00000E31  C$main.c$ |    00000E34  A$lcc1085 |    00000E35  A$lcc1085
     00000E36  A$lcc1085 |    00000E38  A$lcc1085 |    00000E39  A$lcc1085
     00000E3C  A$lcc1085 |    00000E3D  A$lcc1085 |    00000E3E  A$lcc1085
     00000E3F  A$lcc1085 |    00000E41  A$lcc1085 |    00000E42  A$lcc1085
     00000E43  A$lcc1085 |    00000E45  A$lcc1085 |    00000E46  A$lcc1085
     00000E47  A$lcc1085 |    00000E49  A$lcc1085 |    00000E49  C$main.c$
     00000E4C  A$lcc1085 |    00000E4D  A$lcc1085 |    00000E4E  A$lcc1085
     00000E50  A$lcc1085 |    00000E50  C$main.c$ |    00000E51  A$lcc1085
     00000E52  A$lcc1085 |    00000E52  C$main.c$ |    00000E55  A$lcc1085
     00000E56  A$lcc1085 |    00000E58  A$lcc1085 |    00000E58  C$main.c$
     00000E5B  A$lcc1085 |    00000E5B  C$main.c$ |    00000E5E  A$lcc1085
ASxxxx Linker V03.00 + NoICE + sdld,  page 18.
Hexadecimal  [32-Bits]

Area                       Addr        Size        Decimal Bytes (Attributes)
--------------------       ----        ----        ------- ----- ------------
_CODE                  00000200    000025B8 =        9656. bytes (REL,CON)

        Value  Global            Value  Global            Value  Global    
        -----  ------            -----  ------            -----  ------    
     00000E5F  A$lcc1085 |    00000E62  A$lcc1085 |    00000E63  A$lcc1085
     00000E66  A$lcc1085 |    00000E67  A$lcc1085 |    00000E6A  A$lcc1085
     00000E6C  A$lcc1085 |    00000E6C  C$main.c$ |    00000E6F  A$lcc1085
     00000E71  A$lcc1085 |    00000E74  A$lcc1085 |    00000E75  A$lcc1085
     00000E76  A$lcc1085 |    00000E77  A$lcc1085 |    00000E7A  A$lcc1085
     00000E7B  A$lcc1085 |    00000E7C  A$lcc1085 |    00000E7D  A$lcc1085
     00000E7E  A$lcc1085 |    00000E7F  A$lcc1085 |    00000E80  A$lcc1085
     00000E83  A$lcc1085 |    00000E84  A$lcc1085 |    00000E84  C$main.c$
     00000E87  A$lcc1085 |    00000E87  C$main.c$ |    00000E8A  A$lcc1085
     00000E8D  A$lcc1085 |    00000E8D  C$main.c$ |    00000E8F  A$lcc1085
     00000E90  A$lcc1085 |    00000E92  A$lcc1085 |    00000E94  A$lcc1085
     00000E95  A$lcc1085 |    00000E97  A$lcc1085 |    00000E99  A$lcc1085
     00000E99  C$main.c$ |    00000E9C  A$lcc1085 |    00000E9D  A$lcc1085
     00000E9E  A$lcc1085 |    00000EA0  A$lcc1085 |    00000EA0  C$main.c$
     00000EA1  A$lcc1085 |    00000EA2  A$lcc1085 |    00000EA2  C$main.c$
     00000EA5  A$lcc1085 |    00000EA6  A$lcc1085 |    00000EA8  A$lcc1085
     00000EA8  C$main.c$ |    00000EAB  A$lcc1085 |    00000EAB  C$main.c$
     00000EAE  A$lcc1085 |    00000EAF  A$lcc1085 |    00000EB2  A$lcc1085
     00000EB3  A$lcc1085 |    00000EB6  A$lcc1085 |    00000EB7  A$lcc1085
     00000EBA  A$lcc1085 |    00000EBC  A$lcc1085 |    00000EBC  C$main.c$
     00000EBF  A$lcc1085 |    00000EC1  A$lcc1085 |    00000EC4  A$lcc1085
     00000EC5  A$lcc1085 |    00000EC6  A$lcc1085 |    00000EC7  A$lcc1085
     00000ECA  A$lcc1085 |    00000ECB  A$lcc1085 |    00000ECC  A$lcc1085
     00000ECD  A$lcc1085 |    00000ECE  A$lcc1085 |    00000ECF  A$lcc1085
     00000ED0  A$lcc1085 |    00000ED3  A$lcc1085 |    00000ED4  A$lcc1085
     00000ED4  C$main.c$ |    00000ED7  A$lcc1085 |    00000ED7  C$main.c$
     00000EDA  A$lcc1085 |    00000EDD  A$lcc1085 |    00000EDD  C$main.c$
     00000EDF  A$lcc1085 |    00000EE0  A$lcc1085 |    00000EE2  A$lcc1085
     00000EE4  A$lcc1085 |    00000EE5  A$lcc1085 |    00000EE7  A$lcc1085
     00000EE9  A$lcc1085 |    00000EE9  C$main.c$ |    00000EEC  A$lcc1085
     00000EED  A$lcc1085 |    00000EEE  A$lcc1085 |    00000EF0  A$lcc1085
     00000EF0  C$main.c$ |    00000EF1  A$lcc1085 |    00000EF2  A$lcc1085
     00000EF2  C$main.c$ |    00000EF5  A$lcc1085 |    00000EF6  A$lcc1085
     00000EF8  A$lcc1085 |    00000EF8  C$main.c$ |    00000EFB  A$lcc1085
     00000EFB  C$main.c$ |    00000EFE  A$lcc1085 |    00000EFF  A$lcc1085
     00000F02  A$lcc1085 |    00000F03  A$lcc1085 |    00000F06  A$lcc1085
     00000F07  A$lcc1085 |    00000F0A  A$lcc1085 |    00000F0C  A$lcc1085
     00000F0C  C$main.c$ |    00000F0F  A$lcc1085 |    00000F11  A$lcc1085
     00000F14  A$lcc1085 |    00000F15  A$lcc1085 |    00000F16  A$lcc1085
     00000F17  A$lcc1085 |    00000F1A  A$lcc1085 |    00000F1B  A$lcc1085
     00000F1C  A$lcc1085 |    00000F1D  A$lcc1085 |    00000F1E  A$lcc1085
     00000F1F  A$lcc1085 |    00000F20  A$lcc1085 |    00000F23  A$lcc1085
     00000F24  A$lcc1085 |    00000F24  C$main.c$ |    00000F27  A$lcc1085
     00000F27  C$main.c$ |    00000F2A  A$lcc1085 |    00000F2D  A$lcc1085
     00000F2D  C$main.c$ |    00000F2F  A$lcc1085 |    00000F30  A$lcc1085
     00000F32  A$lcc1085 |    00000F34  A$lcc1085 |    00000F35  A$lcc1085
     00000F37  A$lcc1085 |    00000F39  A$lcc1085 |    00000F39  C$main.c$
     00000F3C  A$lcc1085 |    00000F3D  A$lcc1085 |    00000F3E  A$lcc1085
     00000F40  A$lcc1085 |    00000F40  C$main.c$ |    00000F41  A$lcc1085
     00000F42  A$lcc1085 |    00000F42  C$main.c$ |    00000F45  A$lcc1085
     00000F46  A$lcc1085 |    00000F48  A$lcc1085 |    00000F48  C$main.c$
ASxxxx Linker V03.00 + NoICE + sdld,  page 19.
Hexadecimal  [32-Bits]

Area                       Addr        Size        Decimal Bytes (Attributes)
--------------------       ----        ----        ------- ----- ------------
_CODE                  00000200    000025B8 =        9656. bytes (REL,CON)

        Value  Global            Value  Global            Value  Global    
        -----  ------            -----  ------            -----  ------    
     00000F4B  A$lcc1085 |    00000F4B  C$main.c$ |    00000F4E  A$lcc1085
     00000F4F  A$lcc1085 |    00000F52  A$lcc1085 |    00000F53  A$lcc1085
     00000F56  A$lcc1085 |    00000F57  A$lcc1085 |    00000F5A  A$lcc1085
     00000F5C  A$lcc1085 |    00000F5C  C$main.c$ |    00000F5F  A$lcc1085
     00000F61  A$lcc1085 |    00000F64  A$lcc1085 |    00000F65  A$lcc1085
     00000F66  A$lcc1085 |    00000F67  A$lcc1085 |    00000F6A  A$lcc1085
     00000F6B  A$lcc1085 |    00000F6C  A$lcc1085 |    00000F6D  A$lcc1085
     00000F6E  A$lcc1085 |    00000F6F  A$lcc1085 |    00000F70  A$lcc1085
     00000F73  A$lcc1085 |    00000F74  A$lcc1085 |    00000F74  C$main.c$
     00000F76  A$lcc1085 |    00000F76  C$main.c$ |    00000F79  A$lcc1085
     00000F7B  A$lcc1085 |    00000F7B  C$main.c$ |    00000F7D  A$lcc1085
     00000F7E  A$lcc1085 |    00000F80  A$lcc1085 |    00000F82  A$lcc1085
     00000F83  A$lcc1085 |    00000F85  A$lcc1085 |    00000F87  A$lcc1085
     00000F87  C$main.c$ |    00000F8A  A$lcc1085 |    00000F8B  A$lcc1085
     00000F8C  A$lcc1085 |    00000F8E  A$lcc1085 |    00000F8E  C$main.c$
     00000F8F  A$lcc1085 |    00000F90  A$lcc1085 |    00000F90  C$main.c$
     00000F93  A$lcc1085 |    00000F94  A$lcc1085 |    00000F96  A$lcc1085
     00000F96  C$main.c$ |    00000F99  A$lcc1085 |    00000F99  C$main.c$
     00000F9C  A$lcc1085 |    00000F9D  A$lcc1085 |    00000FA0  A$lcc1085
     00000FA1  A$lcc1085 |    00000FA4  A$lcc1085 |    00000FA5  A$lcc1085
     00000FA8  A$lcc1085 |    00000FAA  A$lcc1085 |    00000FAA  C$main.c$
     00000FAD  A$lcc1085 |    00000FAF  A$lcc1085 |    00000FB2  A$lcc1085
     00000FB3  A$lcc1085 |    00000FB4  A$lcc1085 |    00000FB5  A$lcc1085
     00000FB8  A$lcc1085 |    00000FB9  A$lcc1085 |    00000FBA  A$lcc1085
     00000FBB  A$lcc1085 |    00000FBC  A$lcc1085 |    00000FBD  A$lcc1085
     00000FBE  A$lcc1085 |    00000FC1  A$lcc1085 |    00000FC2  A$lcc1085
     00000FC2  C$main.c$ |    00000FC4  A$lcc1085 |    00000FC4  C$main.c$
     00000FC7  A$lcc1085 |    00000FC9  A$lcc1085 |    00000FC9  C$main.c$
     00000FCC  A$lcc1085 |    00000FCE  A$lcc1085 |    00000FCE  C$main.c$
     00000FCE  XG$win_ch |    00000FCF  A$lcc1085 |    00000FCF  C$main.c$
     00000FCF  G$collide |    00000FCF  _collide_ |    00000FD1  A$lcc1085
     00000FD3  A$lcc1085 |    00000FD4  A$lcc1085 |    00000FD5  A$lcc1085
     00000FD5  C$main.c$ |    00000FD8  A$lcc1085 |    00000FD9  A$lcc1085
     00000FDA  A$lcc1085 |    00000FDC  A$lcc1085 |    00000FDD  A$lcc1085
     00000FDE  A$lcc1085 |    00000FDF  A$lcc1085 |    00000FE0  A$lcc1085
     00000FE2  A$lcc1085 |    00000FE4  A$lcc1085 |    00000FE4  C$main.c$
     00000FE6  A$lcc1085 |    00000FE8  A$lcc1085 |    00000FE8  C$main.c$
     00000FEA  A$lcc1085 |    00000FEC  A$lcc1085 |    00000FEE  A$lcc1085
     00000FEE  C$main.c$ |    00000FF0  A$lcc1085 |    00000FF2  A$lcc1085
     00000FF2  C$main.c$ |    00000FF4  A$lcc1085 |    00000FF6  A$lcc1085
     00000FF6  C$main.c$ |    00000FF8  A$lcc1085 |    00000FF9  A$lcc1085
     00000FFA  A$lcc1085 |    00000FFB  A$lcc1085 |    00000FFC  A$lcc1085
     00000FFD  A$lcc1085 |    00000FFE  A$lcc1085 |    00000FFF  A$lcc1085
     00001002  A$lcc1085 |    00001003  A$lcc1085 |    00001004  A$lcc1085
     00001005  A$lcc1085 |    00001007  A$lcc1085 |    00001008  A$lcc1085
     00001009  A$lcc1085 |    0000100A  A$lcc1085 |    0000100C  A$lcc1085
     0000100D  A$lcc1085 |    0000100E  A$lcc1085 |    0000100F  A$lcc1085
     00001010  A$lcc1085 |    00001012  A$lcc1085 |    00001014  A$lcc1085
     00001015  A$lcc1085 |    00001016  A$lcc1085 |    00001017  A$lcc1085
     00001018  A$lcc1085 |    00001019  A$lcc1085 |    0000101A  A$lcc1085
     0000101D  A$lcc1085 |    0000101E  A$lcc1085 |    0000101F  A$lcc1085
ASxxxx Linker V03.00 + NoICE + sdld,  page 20.
Hexadecimal  [32-Bits]

Area                       Addr        Size        Decimal Bytes (Attributes)
--------------------       ----        ----        ------- ----- ------------
_CODE                  00000200    000025B8 =        9656. bytes (REL,CON)

        Value  Global            Value  Global            Value  Global    
        -----  ------            -----  ------            -----  ------    
     00001020  A$lcc1085 |    00001022  A$lcc1085 |    00001024  A$lcc1085
     00001026  A$lcc1085 |    00001028  A$lcc1085 |    0000102A  A$lcc1085
     0000102C  A$lcc1085 |    0000102C  C$main.c$ |    0000102F  A$lcc1085
     00001030  A$lcc1085 |    00001031  A$lcc1085 |    00001032  A$lcc1085
     00001033  A$lcc1085 |    00001034  A$lcc1085 |    00001035  A$lcc1085
     00001036  A$lcc1085 |    00001037  A$lcc1085 |    00001037  C$main.c$
     00001038  A$lcc1085 |    0000103A  A$lcc1085 |    0000103B  A$lcc1085
     0000103D  A$lcc1085 |    0000103E  A$lcc1085 |    00001040  A$lcc1085
     00001040  C$main.c$ |    00001041  A$lcc1085 |    00001042  A$lcc1085
     00001044  A$lcc1085 |    00001045  A$lcc1085 |    00001047  A$lcc1085
     00001049  A$lcc1085 |    0000104A  A$lcc1085 |    0000104C  A$lcc1085
     0000104E  A$lcc1085 |    0000104F  A$lcc1085 |    00001050  A$lcc1085
     00001051  A$lcc1085 |    00001052  A$lcc1085 |    00001053  A$lcc1085
     00001054  A$lcc1085 |    00001056  A$lcc1085 |    00001057  A$lcc1085
     00001059  A$lcc1085 |    0000105A  A$lcc1085 |    0000105B  A$lcc1085
     0000105C  A$lcc1085 |    0000105D  A$lcc1085 |    0000105E  A$lcc1085
     0000105F  A$lcc1085 |    00001060  A$lcc1085 |    00001061  A$lcc1085
     00001062  A$lcc1085 |    00001063  A$lcc1085 |    00001065  A$lcc1085
     00001066  A$lcc1085 |    00001068  A$lcc1085 |    00001069  A$lcc1085
     0000106B  A$lcc1085 |    0000106C  A$lcc1085 |    0000106E  A$lcc1085
     0000106F  A$lcc1085 |    00001071  A$lcc1085 |    00001073  A$lcc1085
     00001075  A$lcc1085 |    00001076  A$lcc1085 |    00001077  A$lcc1085
     0000107A  A$lcc1085 |    0000107B  A$lcc1085 |    0000107C  A$lcc1085
     0000107D  A$lcc1085 |    0000107F  A$lcc1085 |    00001080  A$lcc1085
     00001081  A$lcc1085 |    00001082  A$lcc1085 |    00001084  A$lcc1085
     00001085  A$lcc1085 |    00001087  A$lcc1085 |    00001089  A$lcc1085
     0000108A  A$lcc1085 |    0000108C  A$lcc1085 |    0000108D  A$lcc1085
     0000108F  A$lcc1085 |    00001090  A$lcc1085 |    00001092  A$lcc1085
     00001093  A$lcc1085 |    00001095  A$lcc1085 |    00001096  A$lcc1085
     00001098  A$lcc1085 |    00001098  C$main.c$ |    0000109A  A$lcc1085
     0000109B  A$lcc1085 |    0000109C  A$lcc1085 |    0000109E  A$lcc1085
     0000109F  A$lcc1085 |    000010A0  A$lcc1085 |    000010A1  A$lcc1085
     000010A2  A$lcc1085 |    000010A3  A$lcc1085 |    000010A4  A$lcc1085
     000010A6  A$lcc1085 |    000010A7  A$lcc1085 |    000010A8  A$lcc1085
     000010A9  A$lcc1085 |    000010AA  A$lcc1085 |    000010AB  A$lcc1085
     000010AC  A$lcc1085 |    000010AE  A$lcc1085 |    000010AF  A$lcc1085
     000010B0  A$lcc1085 |    000010B1  A$lcc1085 |    000010B3  A$lcc1085
     000010B4  A$lcc1085 |    000010B5  A$lcc1085 |    000010B6  A$lcc1085
     000010B7  A$lcc1085 |    000010B8  A$lcc1085 |    000010B9  A$lcc1085
     000010BA  A$lcc1085 |    000010BB  A$lcc1085 |    000010BD  A$lcc1085
     000010BF  A$lcc1085 |    000010C0  A$lcc1085 |    000010C1  A$lcc1085
     000010C2  A$lcc1085 |    000010C3  A$lcc1085 |    000010C6  A$lcc1085
     000010C7  A$lcc1085 |    000010C8  A$lcc1085 |    000010C9  A$lcc1085
     000010CB  A$lcc1085 |    000010CC  A$lcc1085 |    000010CD  A$lcc1085
     000010CE  A$lcc1085 |    000010D0  A$lcc1085 |    000010D1  A$lcc1085
     000010D3  A$lcc1085 |    000010D4  A$lcc1085 |    000010D5  A$lcc1085
     000010D5  C$main.c$ |    000010D6  A$lcc1085 |    000010D7  A$lcc1085
     000010D9  A$lcc1085 |    000010DB  A$lcc1085 |    000010DD  A$lcc1085
     000010DF  A$lcc1085 |    000010E1  A$lcc1085 |    000010E3  A$lcc1085
     000010E4  A$lcc1085 |    000010E5  A$lcc1085 |    000010E7  A$lcc1085
     000010E8  A$lcc1085 |    000010E9  A$lcc1085 |    000010EA  A$lcc1085
ASxxxx Linker V03.00 + NoICE + sdld,  page 21.
Hexadecimal  [32-Bits]

Area                       Addr        Size        Decimal Bytes (Attributes)
--------------------       ----        ----        ------- ----- ------------
_CODE                  00000200    000025B8 =        9656. bytes (REL,CON)

        Value  Global            Value  Global            Value  Global    
        -----  ------            -----  ------            -----  ------    
     000010EB  A$lcc1085 |    000010EC  A$lcc1085 |    000010EF  A$lcc1085
     000010F0  A$lcc1085 |    000010F1  A$lcc1085 |    000010F2  A$lcc1085
     000010F4  A$lcc1085 |    000010F5  A$lcc1085 |    000010F7  A$lcc1085
     000010F7  C$main.c$ |    000010F8  A$lcc1085 |    000010FA  A$lcc1085
     000010FB  A$lcc1085 |    000010FC  A$lcc1085 |    000010FD  A$lcc1085
     000010FE  A$lcc1085 |    00001101  A$lcc1085 |    00001102  A$lcc1085
     00001104  A$lcc1085 |    00001105  A$lcc1085 |    00001106  A$lcc1085
     00001108  A$lcc1085 |    00001108  C$main.c$ |    0000110B  A$lcc1085
     0000110C  A$lcc1085 |    0000110D  A$lcc1085 |    0000110E  A$lcc1085
     0000110F  A$lcc1085 |    00001111  A$lcc1085 |    00001112  A$lcc1085
     00001113  A$lcc1085 |    00001114  A$lcc1085 |    00001115  A$lcc1085
     00001117  A$lcc1085 |    00001119  A$lcc1085 |    00001119  C$main.c$
     0000111B  A$lcc1085 |    0000111C  A$lcc1085 |    0000111E  A$lcc1085
     0000111F  A$lcc1085 |    00001121  A$lcc1085 |    00001123  A$lcc1085
     00001124  A$lcc1085 |    00001126  A$lcc1085 |    00001127  A$lcc1085
     00001128  A$lcc1085 |    0000112A  A$lcc1085 |    0000112B  A$lcc1085
     0000112D  A$lcc1085 |    0000112F  A$lcc1085 |    00001130  A$lcc1085
     00001132  A$lcc1085 |    00001133  A$lcc1085 |    00001135  A$lcc1085
     00001138  A$lcc1085 |    00001139  A$lcc1085 |    0000113B  A$lcc1085
     0000113C  A$lcc1085 |    0000113D  A$lcc1085 |    0000113F  A$lcc1085
     00001140  A$lcc1085 |    00001143  A$lcc1085 |    00001143  C$main.c$
     00001146  A$lcc1085 |    00001149  A$lcc1085 |    00001149  C$main.c$
     00001149  C$main.c$ |    0000114A  A$lcc1085 |    0000114C  A$lcc1085
     0000114D  A$lcc1085 |    0000114F  A$lcc1085 |    00001150  A$lcc1085
     00001152  A$lcc1085 |    00001153  A$lcc1085 |    00001155  A$lcc1085
     00001155  C$main.c$ |    00001157  A$lcc1085 |    00001158  A$lcc1085
     0000115A  A$lcc1085 |    0000115B  A$lcc1085 |    0000115D  A$lcc1085
     0000115F  A$lcc1085 |    00001160  A$lcc1085 |    00001161  A$lcc1085
     00001163  A$lcc1085 |    00001165  A$lcc1085 |    00001166  A$lcc1085
     00001168  A$lcc1085 |    00001169  A$lcc1085 |    0000116A  A$lcc1085
     0000116C  A$lcc1085 |    0000116D  A$lcc1085 |    0000116F  A$lcc1085
     00001171  A$lcc1085 |    00001173  A$lcc1085 |    00001175  A$lcc1085
     00001177  A$lcc1085 |    00001178  A$lcc1085 |    00001179  A$lcc1085
     0000117B  A$lcc1085 |    0000117C  A$lcc1085 |    0000117E  A$lcc1085
     0000117E  C$main.c$ |    00001181  A$lcc1085 |    00001183  A$lcc1085
     00001186  A$lcc1085 |    00001186  C$main.c$ |    00001189  A$lcc1085
     0000118A  A$lcc1085 |    0000118D  A$lcc1085 |    0000118D  C$main.c$
     00001190  A$lcc1085 |    00001193  A$lcc1085 |    00001193  C$main.c$
     00001195  A$lcc1085 |    00001196  A$lcc1085 |    00001198  A$lcc1085
     00001199  A$lcc1085 |    0000119B  A$lcc1085 |    0000119D  A$lcc1085
     0000119E  A$lcc1085 |    000011A0  A$lcc1085 |    000011A1  A$lcc1085
     000011A3  A$lcc1085 |    000011A5  A$lcc1085 |    000011A6  A$lcc1085
     000011A7  A$lcc1085 |    000011A9  A$lcc1085 |    000011AA  A$lcc1085
     000011AC  A$lcc1085 |    000011AD  A$lcc1085 |    000011AF  A$lcc1085
     000011B0  A$lcc1085 |    000011B2  A$lcc1085 |    000011B4  A$lcc1085
     000011B5  A$lcc1085 |    000011B6  A$lcc1085 |    000011B8  A$lcc1085
     000011B9  A$lcc1085 |    000011BB  A$lcc1085 |    000011BC  A$lcc1085
     000011BE  A$lcc1085 |    000011BF  A$lcc1085 |    000011BF  C$main.c$
     000011C0  A$lcc1085 |    000011C2  A$lcc1085 |    000011C3  A$lcc1085
     000011C5  A$lcc1085 |    000011C5  C$main.c$ |    000011C6  A$lcc1085
     000011C7  A$lcc1085 |    000011C9  A$lcc1085 |    000011CB  A$lcc1085
ASxxxx Linker V03.00 + NoICE + sdld,  page 22.
Hexadecimal  [32-Bits]

Area                       Addr        Size        Decimal Bytes (Attributes)
--------------------       ----        ----        ------- ----- ------------
_CODE                  00000200    000025B8 =        9656. bytes (REL,CON)

        Value  Global            Value  Global            Value  Global    
        -----  ------            -----  ------            -----  ------    
     000011CC  A$lcc1085 |    000011CE  A$lcc1085 |    000011D0  A$lcc1085
     000011D2  A$lcc1085 |    000011D4  A$lcc1085 |    000011D6  A$lcc1085
     000011D7  A$lcc1085 |    000011D8  A$lcc1085 |    000011DA  A$lcc1085
     000011DC  A$lcc1085 |    000011DC  C$main.c$ |    000011DF  A$lcc1085
     000011E1  A$lcc1085 |    000011E4  A$lcc1085 |    000011E4  C$main.c$
     000011E7  A$lcc1085 |    000011E8  A$lcc1085 |    000011EB  A$lcc1085
     000011EB  C$main.c$ |    000011EE  A$lcc1085 |    000011F1  A$lcc1085
     000011F1  C$main.c$ |    000011F2  A$lcc1085 |    000011F4  A$lcc1085
     000011F5  A$lcc1085 |    000011F7  A$lcc1085 |    000011F7  C$main.c$
     000011F9  A$lcc1085 |    000011FB  A$lcc1085 |    000011FD  A$lcc1085
     000011FE  A$lcc1085 |    00001200  A$lcc1085 |    00001202  A$lcc1085
     00001204  A$lcc1085 |    00001206  A$lcc1085 |    00001208  A$lcc1085
     00001209  A$lcc1085 |    0000120A  A$lcc1085 |    0000120C  A$lcc1085
     0000120E  A$lcc1085 |    0000120E  C$main.c$ |    00001211  A$lcc1085
     00001213  A$lcc1085 |    00001215  A$lcc1085 |    00001215  C$main.c$
     00001218  A$lcc1085 |    00001219  A$lcc1085 |    0000121B  A$lcc1085
     0000121B  C$main.c$ |    0000121E  A$lcc1085 |    00001220  A$lcc1085
     00001220  C$main.c$ |    00001221  A$lcc1085 |    00001223  A$lcc1085
     00001224  A$lcc1085 |    00001226  A$lcc1085 |    00001226  C$main.c$
     00001229  A$lcc1085 |    0000122A  A$lcc1085 |    0000122C  A$lcc1085
     0000122C  C$main.c$ |    0000122F  A$lcc1085 |    00001232  A$lcc1085
     00001232  C$main.c$ |    00001234  A$lcc1085 |    00001236  A$lcc1085
     00001238  A$lcc1085 |    00001239  A$lcc1085 |    0000123B  A$lcc1085
     0000123D  A$lcc1085 |    0000123F  A$lcc1085 |    00001241  A$lcc1085
     00001243  A$lcc1085 |    00001244  A$lcc1085 |    00001245  A$lcc1085
     00001247  A$lcc1085 |    00001249  A$lcc1085 |    00001249  C$main.c$
     0000124C  A$lcc1085 |    0000124E  A$lcc1085 |    00001250  A$lcc1085
     00001250  C$main.c$ |    00001253  A$lcc1085 |    00001254  A$lcc1085
     00001256  A$lcc1085 |    00001256  C$main.c$ |    00001259  A$lcc1085
     0000125B  A$lcc1085 |    0000125B  C$main.c$ |    0000125C  A$lcc1085
     0000125E  A$lcc1085 |    0000125F  A$lcc1085 |    00001261  A$lcc1085
     00001261  C$main.c$ |    00001264  A$lcc1085 |    00001265  A$lcc1085
     00001266  A$lcc1085 |    00001267  A$lcc1085 |    0000126A  A$lcc1085
     0000126A  C$main.c$ |    0000126D  A$lcc1085 |    0000126E  A$lcc1085
     00001270  A$lcc1085 |    00001270  C$main.c$ |    00001273  A$lcc1085
     00001276  A$lcc1085 |    00001278  A$lcc1085 |    00001278  C$main.c$
     00001278  XG$collid |    00001279  A$lcc1085 |    00001279  C$main.c$
     00001279  G$animate |    00001279  _animate_ |    0000127B  A$lcc1085
     0000127B  C$main.c$ |    0000127E  A$lcc1085 |    0000127F  A$lcc1085
     0000127F  C$main.c$ |    00001282  A$lcc1085 |    00001283  A$lcc1085
     00001283  C$main.c$ |    00001285  A$lcc1085 |    00001287  A$lcc1085
     00001287  C$main.c$ |    0000128A  A$lcc1085 |    0000128C  A$lcc1085
     0000128E  A$lcc1085 |    0000128E  C$main.c$ |    00001291  A$lcc1085
     00001293  A$lcc1085 |    00001294  A$lcc1085 |    00001297  A$lcc1085
     00001298  A$lcc1085 |    0000129A  A$lcc1085 |    0000129B  A$lcc1085
     0000129D  A$lcc1085 |    0000129F  A$lcc1085 |    000012A0  A$lcc1085
     000012A2  A$lcc1085 |    000012A3  A$lcc1085 |    000012A4  A$lcc1085
     000012A7  A$lcc1085 |    000012A8  A$lcc1085 |    000012A9  A$lcc1085
     000012AA  A$lcc1085 |    000012AC  A$lcc1085 |    000012AD  A$lcc1085
     000012AE  A$lcc1085 |    000012AF  A$lcc1085 |    000012B1  A$lcc1085
     000012B2  A$lcc1085 |    000012B3  A$lcc1085 |    000012B4  A$lcc1085
ASxxxx Linker V03.00 + NoICE + sdld,  page 23.
Hexadecimal  [32-Bits]

Area                       Addr        Size        Decimal Bytes (Attributes)
--------------------       ----        ----        ------- ----- ------------
_CODE                  00000200    000025B8 =        9656. bytes (REL,CON)

        Value  Global            Value  Global            Value  Global    
        -----  ------            -----  ------            -----  ------    
     000012B5  A$lcc1085 |    000012B6  A$lcc1085 |    000012B7  A$lcc1085
     000012B7  C$main.c$ |    000012B9  A$lcc1085 |    000012BA  A$lcc1085
     000012BC  A$lcc1085 |    000012BE  A$lcc1085 |    000012BE  C$main.c$
     000012C0  A$lcc1085 |    000012C1  A$lcc1085 |    000012C2  A$lcc1085
     000012C3  A$lcc1085 |    000012C4  A$lcc1085 |    000012C7  A$lcc1085
     000012C8  A$lcc1085 |    000012C8  C$main.c$ |    000012C9  A$lcc1085
     000012CB  A$lcc1085 |    000012CC  A$lcc1085 |    000012CD  A$lcc1085
     000012CE  A$lcc1085 |    000012CF  A$lcc1085 |    000012D2  A$lcc1085
     000012D3  A$lcc1085 |    000012D4  A$lcc1085 |    000012D5  A$lcc1085
     000012D5  C$main.c$ |    000012D6  A$lcc1085 |    000012D8  A$lcc1085
     000012DA  A$lcc1085 |    000012DC  A$lcc1085 |    000012DD  A$lcc1085
     000012DF  A$lcc1085 |    000012DF  C$main.c$ |    000012E1  A$lcc1085
     000012E2  A$lcc1085 |    000012E4  A$lcc1085 |    000012E5  A$lcc1085
     000012E6  A$lcc1085 |    000012E7  A$lcc1085 |    000012EA  A$lcc1085
     000012EC  A$lcc1085 |    000012EC  C$main.c$ |    000012ED  A$lcc1085
     000012EF  A$lcc1085 |    000012F1  A$lcc1085 |    000012F3  A$lcc1085
     000012F4  A$lcc1085 |    000012F6  A$lcc1085 |    000012F6  C$main.c$
     000012F8  A$lcc1085 |    000012F9  A$lcc1085 |    000012FB  A$lcc1085
     000012FC  A$lcc1085 |    000012FD  A$lcc1085 |    000012FE  A$lcc1085
     00001301  A$lcc1085 |    00001303  A$lcc1085 |    00001303  C$main.c$
     00001304  A$lcc1085 |    00001306  A$lcc1085 |    00001306  C$main.c$
     00001309  A$lcc1085 |    0000130B  A$lcc1085 |    0000130D  A$lcc1085
     00001310  A$lcc1085 |    00001311  A$lcc1085 |    00001312  A$lcc1085
     00001314  A$lcc1085 |    00001314  C$main.c$ |    00001316  A$lcc1085
     00001316  C$main.c$ |    00001319  A$lcc1085 |    0000131A  A$lcc1085
     0000131D  A$lcc1085 |    0000131D  C$main.c$ |    00001320  A$lcc1085
     00001322  A$lcc1085 |    00001325  A$lcc1085 |    00001325  C$main.c$
     00001328  A$lcc1085 |    00001329  A$lcc1085 |    0000132A  A$lcc1085
     0000132C  A$lcc1085 |    0000132F  A$lcc1085 |    00001332  A$lcc1085
     00001335  A$lcc1085 |    00001336  A$lcc1085 |    00001337  A$lcc1085
     00001337  C$main.c$ |    00001338  A$lcc1085 |    00001339  A$lcc1085
     0000133B  A$lcc1085 |    0000133B  C$main.c$ |    0000133E  A$lcc1085
     0000133F  A$lcc1085 |    00001340  A$lcc1085 |    00001342  A$lcc1085
     00001342  C$main.c$ |    00001344  A$lcc1085 |    00001345  A$lcc1085
     00001346  A$lcc1085 |    00001347  A$lcc1085 |    00001349  A$lcc1085
     0000134A  A$lcc1085 |    0000134B  A$lcc1085 |    0000134C  A$lcc1085
     0000134D  A$lcc1085 |    00001350  A$lcc1085 |    00001352  A$lcc1085
     00001352  C$main.c$ |    00001353  A$lcc1085 |    00001355  A$lcc1085
     00001355  C$main.c$ |    00001358  A$lcc1085 |    00001359  A$lcc1085
     0000135A  A$lcc1085 |    0000135C  A$lcc1085 |    0000135C  C$main.c$
     0000135E  A$lcc1085 |    0000135F  A$lcc1085 |    00001360  A$lcc1085
     00001361  A$lcc1085 |    00001363  A$lcc1085 |    00001364  A$lcc1085
     00001365  A$lcc1085 |    00001366  A$lcc1085 |    00001367  A$lcc1085
     0000136A  A$lcc1085 |    0000136C  A$lcc1085 |    0000136C  C$main.c$
     0000136D  A$lcc1085 |    0000136F  A$lcc1085 |    0000136F  C$main.c$
     00001372  A$lcc1085 |    00001374  A$lcc1085 |    00001374  C$main.c$
     00001377  A$lcc1085 |    00001379  A$lcc1085 |    0000137B  A$lcc1085
     0000137B  C$main.c$ |    0000137E  A$lcc1085 |    0000137F  A$lcc1085
     00001380  A$lcc1085 |    00001382  A$lcc1085 |    00001382  C$main.c$
     00001383  A$lcc1085 |    00001384  A$lcc1085 |    00001385  A$lcc1085
     00001387  A$lcc1085 |    00001388  A$lcc1085 |    00001389  A$lcc1085
ASxxxx Linker V03.00 + NoICE + sdld,  page 24.
Hexadecimal  [32-Bits]

Area                       Addr        Size        Decimal Bytes (Attributes)
--------------------       ----        ----        ------- ----- ------------
_CODE                  00000200    000025B8 =        9656. bytes (REL,CON)

        Value  Global            Value  Global            Value  Global    
        -----  ------            -----  ------            -----  ------    
     0000138A  A$lcc1085 |    0000138B  A$lcc1085 |    0000138E  A$lcc1085
     00001390  A$lcc1085 |    00001391  A$lcc1085 |    00001391  C$main.c$
     00001392  A$lcc1085 |    00001394  A$lcc1085 |    00001394  C$main.c$
     00001397  A$lcc1085 |    00001398  A$lcc1085 |    00001399  A$lcc1085
     0000139B  A$lcc1085 |    0000139B  C$main.c$ |    0000139C  A$lcc1085
     0000139D  A$lcc1085 |    0000139E  A$lcc1085 |    000013A0  A$lcc1085
     000013A1  A$lcc1085 |    000013A2  A$lcc1085 |    000013A3  A$lcc1085
     000013A4  A$lcc1085 |    000013A7  A$lcc1085 |    000013A9  A$lcc1085
     000013AA  A$lcc1085 |    000013AA  C$main.c$ |    000013AB  A$lcc1085
     000013AD  A$lcc1085 |    000013AF  A$lcc1085 |    000013AF  C$main.c$
     000013AF  XG$animat |    000013B0  A$lcc1085 |    000013B0  C$main.c$
     000013B0  C$main.c$ |    000013B0  G$stage_t |    000013B0  _stage_ti
     000013B3  A$lcc1085 |    000013B4  A$lcc1085 |    000013B6  A$lcc1085
     000013B8  A$lcc1085 |    000013B9  A$lcc1085 |    000013BA  A$lcc1085
     000013BB  A$lcc1085 |    000013BD  A$lcc1085 |    000013C0  A$lcc1085
     000013C2  A$lcc1085 |    000013C4  A$lcc1085 |    000013C4  C$main.c$
     000013C7  A$lcc1085 |    000013C8  A$lcc1085 |    000013C9  A$lcc1085
     000013CA  A$lcc1085 |    000013CC  A$lcc1085 |    000013CE  A$lcc1085
     000013D0  A$lcc1085 |    000013D2  A$lcc1085 |    000013D4  A$lcc1085
     000013D6  A$lcc1085 |    000013D8  A$lcc1085 |    000013DA  A$lcc1085
     000013DC  A$lcc1085 |    000013DE  A$lcc1085 |    000013DF  A$lcc1085
     000013E1  A$lcc1085 |    000013E2  A$lcc1085 |    000013E2  C$main.c$
     000013E3  A$lcc1085 |    000013E3  C$main.c$ |    000013E5  A$lcc1085
     000013E6  A$lcc1085 |    000013E8  A$lcc1085 |    000013E9  A$lcc1085
     000013EA  A$lcc1085 |    000013EB  A$lcc1085 |    000013EC  A$lcc1085
     000013EF  A$lcc1085 |    000013F0  A$lcc1085 |    000013F0  C$main.c$
     000013F1  A$lcc1085 |    000013F3  A$lcc1085 |    000013F4  A$lcc1085
     000013F7  A$lcc1085 |    000013F8  A$lcc1085 |    000013F9  A$lcc1085
     000013FB  A$lcc1085 |    000013FC  A$lcc1085 |    000013FD  A$lcc1085
     000013FF  A$lcc1085 |    00001400  A$lcc1085 |    00001401  A$lcc1085
     00001403  A$lcc1085 |    00001403  C$main.c$ |    00001404  A$lcc1085
     00001406  A$lcc1085 |    00001407  A$lcc1085 |    00001409  A$lcc1085
     0000140A  A$lcc1085 |    0000140B  A$lcc1085 |    0000140C  A$lcc1085
     0000140F  A$lcc1085 |    00001411  A$lcc1085 |    00001411  C$main.c$
     00001414  A$lcc1085 |    00001415  A$lcc1085 |    00001415  C$main.c$
     00001418  A$lcc1085 |    00001419  A$lcc1085 |    0000141B  A$lcc1085
     0000141C  A$lcc1085 |    0000141D  A$lcc1085 |    0000141D  C$main.c$
     00001420  A$lcc1085 |    00001421  A$lcc1085 |    00001423  A$lcc1085
     00001426  A$lcc1085 |    00001426  C$main.c$ |    00001426  C$main.c$
     00001426  XG$stage_ |    00001427  A$lcc1085 |    00001427  C$main.c$
     00001427  C$main.c$ |    00001427  G$render_ |    00001427  _render_d
     0000142A  A$lcc1085 |    0000142C  A$lcc1085 |    0000142E  A$lcc1085
     00001431  A$lcc1085 |    00001432  A$lcc1085 |    00001435  A$lcc1085
     00001436  A$lcc1085 |    00001439  A$lcc1085 |    0000143A  A$lcc1085
     0000143C  A$lcc1085 |    0000143D  A$lcc1085 |    00001440  A$lcc1085
     00001441  A$lcc1085 |    00001442  A$lcc1085 |    00001443  A$lcc1085
     00001444  A$lcc1085 |    00001445  A$lcc1085 |    00001448  A$lcc1085
     00001449  A$lcc1085 |    0000144A  A$lcc1085 |    0000144B  A$lcc1085
     0000144E  A$lcc1085 |    00001450  A$lcc1085 |    00001451  A$lcc1085
     00001452  A$lcc1085 |    00001453  A$lcc1085 |    00001454  A$lcc1085
     00001455  A$lcc1085 |    00001456  A$lcc1085 |    00001457  A$lcc1085
ASxxxx Linker V03.00 + NoICE + sdld,  page 25.
Hexadecimal  [32-Bits]

Area                       Addr        Size        Decimal Bytes (Attributes)
--------------------       ----        ----        ------- ----- ------------
_CODE                  00000200    000025B8 =        9656. bytes (REL,CON)

        Value  Global            Value  Global            Value  Global    
        -----  ------            -----  ------            -----  ------    
     00001458  A$lcc1085 |    0000145B  A$lcc1085 |    0000145D  A$lcc1085
     0000145D  C$main.c$ |    00001460  A$lcc1085 |    00001461  A$lcc1085
     00001461  C$main.c$ |    00001462  A$lcc1085 |    00001464  A$lcc1085
     00001465  A$lcc1085 |    00001468  A$lcc1085 |    00001469  A$lcc1085
     0000146A  A$lcc1085 |    0000146B  A$lcc1085 |    0000146C  A$lcc1085
     0000146E  A$lcc1085 |    0000146E  C$main.c$ |    00001471  A$lcc1085
     00001471  C$main.c$ |    00001474  A$lcc1085 |    00001476  A$lcc1085
     00001476  C$main.c$ |    00001479  A$lcc1085 |    0000147B  A$lcc1085
     0000147B  C$main.c$ |    0000147E  A$lcc1085 |    00001480  A$lcc1085
     00001480  C$main.c$ |    00001483  A$lcc1085 |    00001484  A$lcc1085
     00001484  C$main.c$ |    00001484  XG$render |    00001485  A$lcc1085
     00001485  C$main.c$ |    00001485  G$edge_de |    00001485  _edge_dea
     00001486  A$lcc1085 |    00001486  C$main.c$ |    00001488  A$lcc1085
     0000148B  A$lcc1085 |    0000148C  A$lcc1085 |    0000148D  A$lcc1085
     0000148E  A$lcc1085 |    0000148E  C$main.c$ |    0000148E  C$main.c$
     0000148E  XG$edge_d |    00001491  A$lcc1085 |    00001491  C$main.c$
     00001491  G$spawn_f |    00001491  _spawn_fl |    00001493  A$lcc1085
     00001493  C$main.c$ |    00001496  A$lcc1085 |    00001499  A$lcc1085
     0000149A  A$lcc1085 |    0000149B  A$lcc1085 |    0000149C  A$lcc1085
     0000149F  A$lcc1085 |    0000149F  C$main.c$ |    000014A1  A$lcc1085
     000014A4  A$lcc1085 |    000014A5  A$lcc1085 |    000014A5  C$main.c$
     000014A6  A$lcc1085 |    000014A7  A$lcc1085 |    000014A8  A$lcc1085
     000014A9  A$lcc1085 |    000014AA  A$lcc1085 |    000014AB  A$lcc1085
     000014AC  A$lcc1085 |    000014AF  A$lcc1085 |    000014B0  A$lcc1085
     000014B3  A$lcc1085 |    000014B4  A$lcc1085 |    000014B6  A$lcc1085
     000014B7  A$lcc1085 |    000014B9  A$lcc1085 |    000014BA  A$lcc1085
     000014BB  A$lcc1085 |    000014BC  A$lcc1085 |    000014BF  A$lcc1085
     000014C2  A$lcc1085 |    000014C4  A$lcc1085 |    000014C5  A$lcc1085
     000014C5  C$main.c$ |    000014C8  A$lcc1085 |    000014C9  A$lcc1085
     000014CB  A$lcc1085 |    000014CC  A$lcc1085 |    000014CD  A$lcc1085
     000014CE  A$lcc1085 |    000014CF  A$lcc1085 |    000014D1  A$lcc1085
     000014D2  A$lcc1085 |    000014D3  A$lcc1085 |    000014D4  A$lcc1085
     000014D6  A$lcc1085 |    000014D6  C$main.c$ |    000014D9  A$lcc1085
     000014DB  A$lcc1085 |    000014DC  A$lcc1085 |    000014DE  A$lcc1085
     000014DF  A$lcc1085 |    000014E0  A$lcc1085 |    000014E1  A$lcc1085
     000014E3  A$lcc1085 |    000014E4  A$lcc1085 |    000014E5  A$lcc1085
     000014E6  A$lcc1085 |    000014E8  A$lcc1085 |    000014E9  A$lcc1085
     000014EA  A$lcc1085 |    000014EB  A$lcc1085 |    000014EC  A$lcc1085
     000014ED  A$lcc1085 |    000014EE  A$lcc1085 |    000014F1  A$lcc1085
     000014F1  C$main.c$ |    000014F2  A$lcc1085 |    000014F4  A$lcc1085
     000014F5  A$lcc1085 |    000014F7  A$lcc1085 |    000014F7  C$main.c$
     000014F9  A$lcc1085 |    000014F9  C$main.c$ |    000014FC  A$lcc1085
     000014FE  A$lcc1085 |    000014FF  A$lcc1085 |    00001501  A$lcc1085
     00001502  A$lcc1085 |    00001503  A$lcc1085 |    00001504  A$lcc1085
     00001505  A$lcc1085 |    00001506  A$lcc1085 |    00001508  A$lcc1085
     00001508  C$main.c$ |    0000150B  A$lcc1085 |    0000150D  A$lcc1085
     00001510  A$lcc1085 |    00001512  A$lcc1085 |    00001513  A$lcc1085
     00001515  A$lcc1085 |    00001516  A$lcc1085 |    00001517  A$lcc1085
     00001518  A$lcc1085 |    00001519  A$lcc1085 |    0000151B  A$lcc1085
     0000151C  A$lcc1085 |    0000151F  A$lcc1085 |    00001520  A$lcc1085
     00001521  A$lcc1085 |    00001522  A$lcc1085 |    00001523  A$lcc1085
ASxxxx Linker V03.00 + NoICE + sdld,  page 26.
Hexadecimal  [32-Bits]

Area                       Addr        Size        Decimal Bytes (Attributes)
--------------------       ----        ----        ------- ----- ------------
_CODE                  00000200    000025B8 =        9656. bytes (REL,CON)

        Value  Global            Value  Global            Value  Global    
        -----  ------            -----  ------            -----  ------    
     00001526  A$lcc1085 |    00001527  A$lcc1085 |    00001528  A$lcc1085
     00001529  A$lcc1085 |    0000152C  A$lcc1085 |    0000152E  A$lcc1085
     0000152F  A$lcc1085 |    00001531  A$lcc1085 |    00001532  A$lcc1085
     00001533  A$lcc1085 |    00001535  A$lcc1085 |    00001536  A$lcc1085
     00001538  A$lcc1085 |    00001539  A$lcc1085 |    0000153C  A$lcc1085
     0000153E  A$lcc1085 |    0000153F  A$lcc1085 |    0000153F  C$main.c$
     00001540  A$lcc1085 |    00001541  A$lcc1085 |    00001543  A$lcc1085
     00001546  A$lcc1085 |    00001547  A$lcc1085 |    00001548  A$lcc1085
     00001549  A$lcc1085 |    00001549  C$main.c$ |    0000154B  A$lcc1085
     0000154C  A$lcc1085 |    0000154E  A$lcc1085 |    0000154E  C$main.c$
     00001551  A$lcc1085 |    00001553  A$lcc1085 |    00001556  A$lcc1085
     00001558  A$lcc1085 |    00001559  A$lcc1085 |    0000155B  A$lcc1085
     0000155C  A$lcc1085 |    0000155D  A$lcc1085 |    0000155E  A$lcc1085
     0000155F  A$lcc1085 |    00001560  A$lcc1085 |    00001561  A$lcc1085
     00001562  A$lcc1085 |    00001564  A$lcc1085 |    00001565  A$lcc1085
     00001568  A$lcc1085 |    00001569  A$lcc1085 |    0000156A  A$lcc1085
     0000156B  A$lcc1085 |    0000156C  A$lcc1085 |    0000156D  A$lcc1085
     0000156E  A$lcc1085 |    00001571  A$lcc1085 |    00001573  A$lcc1085
     00001574  A$lcc1085 |    00001577  A$lcc1085 |    0000157A  A$lcc1085
     0000157C  A$lcc1085 |    0000157E  A$lcc1085 |    0000157F  A$lcc1085
     00001580  A$lcc1085 |    00001582  A$lcc1085 |    00001583  A$lcc1085
     00001585  A$lcc1085 |    00001586  A$lcc1085 |    00001589  A$lcc1085
     0000158B  A$lcc1085 |    0000158B  C$main.c$ |    0000158C  A$lcc1085
     0000158D  A$lcc1085 |    0000158E  A$lcc1085 |    00001590  A$lcc1085
     00001591  A$lcc1085 |    00001592  A$lcc1085 |    00001593  A$lcc1085
     00001594  A$lcc1085 |    00001595  A$lcc1085 |    00001598  A$lcc1085
     00001599  A$lcc1085 |    0000159A  A$lcc1085 |    0000159B  A$lcc1085
     0000159C  A$lcc1085 |    0000159D  A$lcc1085 |    0000159F  A$lcc1085
     0000159F  C$main.c$ |    0000159F  XG$spawn_ |    000015A0  A$lcc1085
     000015A0  C$main.c$ |    000015A0  C$main.c$ |    000015A0  G$render_
     000015A0  _render_p |    000015A3  A$lcc1085 |    000015A6  A$lcc1085
     000015A6  C$main.c$ |    000015A9  A$lcc1085 |    000015AC  A$lcc1085
     000015AC  C$main.c$ |    000015AD  A$lcc1085 |    000015AE  A$lcc1085
     000015B0  A$lcc1085 |    000015B3  A$lcc1085 |    000015B5  A$lcc1085
     000015B6  A$lcc1085 |    000015B8  A$lcc1085 |    000015BB  A$lcc1085
     000015BC  A$lcc1085 |    000015BE  A$lcc1085 |    000015BF  A$lcc1085
     000015C1  A$lcc1085 |    000015C2  A$lcc1085 |    000015C3  A$lcc1085
     000015C5  A$lcc1085 |    000015C6  A$lcc1085 |    000015C7  A$lcc1085
     000015C9  A$lcc1085 |    000015C9  C$main.c$ |    000015CC  A$lcc1085
     000015CC  C$main.c$ |    000015CF  A$lcc1085 |    000015CF  C$main.c$
     000015CF  C$main.c$ |    000015CF  XG$render |    000015D2  A$lcc1085
     000015D2  C$main.c$ |    000015D2  C$main.c$ |    000015D2  G$render_
     000015D2  _render_g |    000015D5  A$lcc1085 |    000015D8  A$lcc1085
     000015D8  C$main.c$ |    000015DB  A$lcc1085 |    000015DE  A$lcc1085
     000015DE  C$main.c$ |    000015E1  A$lcc1085 |    000015E2  A$lcc1085
     000015E3  A$lcc1085 |    000015E4  A$lcc1085 |    000015E5  A$lcc1085
     000015E7  A$lcc1085 |    000015E9  A$lcc1085 |    000015EA  A$lcc1085
     000015EC  A$lcc1085 |    000015ED  A$lcc1085 |    000015EF  A$lcc1085
     000015F1  A$lcc1085 |    000015F3  A$lcc1085 |    000015F5  A$lcc1085
     000015F6  A$lcc1085 |    000015F8  A$lcc1085 |    000015FA  A$lcc1085
     000015FC  A$lcc1085 |    000015FD  A$lcc1085 |    000015FF  A$lcc1085
ASxxxx Linker V03.00 + NoICE + sdld,  page 27.
Hexadecimal  [32-Bits]

Area                       Addr        Size        Decimal Bytes (Attributes)
--------------------       ----        ----        ------- ----- ------------
_CODE                  00000200    000025B8 =        9656. bytes (REL,CON)

        Value  Global            Value  Global            Value  Global    
        -----  ------            -----  ------            -----  ------    
     000015FF  C$main.c$ |    00001601  A$lcc1085 |    00001604  A$lcc1085
     00001606  A$lcc1085 |    00001606  C$main.c$ |    00001607  A$lcc1085
     00001609  A$lcc1085 |    0000160A  A$lcc1085 |    0000160B  A$lcc1085
     0000160C  A$lcc1085 |    0000160D  A$lcc1085 |    0000160F  A$lcc1085
     00001611  A$lcc1085 |    00001611  C$main.c$ |    00001612  A$lcc1085
     00001615  A$lcc1085 |    00001615  C$main.c$ |    00001618  A$lcc1085
     00001619  A$lcc1085 |    0000161B  A$lcc1085 |    0000161C  A$lcc1085
     0000161E  A$lcc1085 |    00001620  A$lcc1085 |    00001620  C$main.c$
     00001621  A$lcc1085 |    00001622  A$lcc1085 |    00001624  A$lcc1085
     00001625  A$lcc1085 |    00001626  A$lcc1085 |    00001626  C$main.c$
     00001629  A$lcc1085 |    0000162A  A$lcc1085 |    0000162B  A$lcc1085
     0000162C  A$lcc1085 |    0000162D  A$lcc1085 |    0000162F  A$lcc1085
     00001631  A$lcc1085 |    00001632  A$lcc1085 |    00001634  A$lcc1085
     00001635  A$lcc1085 |    00001637  A$lcc1085 |    00001639  A$lcc1085
     0000163B  A$lcc1085 |    0000163D  A$lcc1085 |    0000163E  A$lcc1085
     00001640  A$lcc1085 |    00001642  A$lcc1085 |    00001644  A$lcc1085
     00001645  A$lcc1085 |    00001647  A$lcc1085 |    0000164A  A$lcc1085
     0000164B  A$lcc1085 |    0000164D  A$lcc1085 |    0000164E  A$lcc1085
     00001650  A$lcc1085 |    00001652  A$lcc1085 |    00001655  A$lcc1085
     00001656  A$lcc1085 |    00001658  A$lcc1085 |    00001658  C$main.c$
     0000165B  A$lcc1085 |    0000165B  C$main.c$ |    0000165E  A$lcc1085
     0000165F  A$lcc1085 |    00001661  A$lcc1085 |    00001661  C$main.c$
     00001664  A$lcc1085 |    00001665  A$lcc1085 |    00001667  A$lcc1085
     00001668  A$lcc1085 |    00001669  A$lcc1085 |    00001669  C$main.c$
     0000166C  A$lcc1085 |    0000166D  A$lcc1085 |    0000166F  A$lcc1085
     00001670  A$lcc1085 |    00001672  A$lcc1085 |    00001674  A$lcc1085
     00001674  C$main.c$ |    00001677  A$lcc1085 |    00001677  C$main.c$
     0000167A  A$lcc1085 |    0000167B  A$lcc1085 |    0000167E  A$lcc1085
     0000167E  C$main.c$ |    00001681  A$lcc1085 |    00001682  A$lcc1085
     00001685  A$lcc1085 |    00001686  A$lcc1085 |    00001687  A$lcc1085
     00001688  A$lcc1085 |    0000168B  A$lcc1085 |    0000168B  C$main.c$
     0000168E  A$lcc1085 |    0000168F  A$lcc1085 |    00001692  A$lcc1085
     00001695  A$lcc1085 |    00001696  A$lcc1085 |    00001699  A$lcc1085
     00001699  C$main.c$ |    0000169C  A$lcc1085 |    0000169F  A$lcc1085
     000016A0  A$lcc1085 |    000016A1  A$lcc1085 |    000016A1  C$main.c$
     000016A2  A$lcc1085 |    000016A3  A$lcc1085 |    000016A5  A$lcc1085
     000016A5  C$main.c$ |    000016A5  C$main.c$ |    000016A8  A$lcc1085
     000016AA  A$lcc1085 |    000016AC  A$lcc1085 |    000016AE  A$lcc1085
     000016B0  A$lcc1085 |    000016B2  A$lcc1085 |    000016B4  A$lcc1085
     000016B7  A$lcc1085 |    000016B7  C$main.c$ |    000016B7  C$main.c$
     000016B9  A$lcc1085 |    000016BC  A$lcc1085 |    000016BC  C$main.c$
     000016BF  A$lcc1085 |    000016C1  A$lcc1085 |    000016C1  C$main.c$
     000016C4  A$lcc1085 |    000016C6  A$lcc1085 |    000016C6  C$main.c$
     000016C9  A$lcc1085 |    000016CB  A$lcc1085 |    000016CB  C$main.c$
     000016CE  A$lcc1085 |    000016D0  A$lcc1085 |    000016D0  C$main.c$
     000016D3  A$lcc1085 |    000016D6  A$lcc1085 |    000016D6  C$main.c$
     000016D9  A$lcc1085 |    000016D9  C$main.c$ |    000016D9  C$main.c$
     000016DB  A$lcc1085 |    000016DE  A$lcc1085 |    000016DE  C$main.c$
     000016E1  A$lcc1085 |    000016E3  A$lcc1085 |    000016E3  C$main.c$
     000016E6  A$lcc1085 |    000016E8  A$lcc1085 |    000016E8  C$main.c$
     000016EB  A$lcc1085 |    000016ED  A$lcc1085 |    000016ED  C$main.c$
ASxxxx Linker V03.00 + NoICE + sdld,  page 28.
Hexadecimal  [32-Bits]

Area                       Addr        Size        Decimal Bytes (Attributes)
--------------------       ----        ----        ------- ----- ------------
_CODE                  00000200    000025B8 =        9656. bytes (REL,CON)

        Value  Global            Value  Global            Value  Global    
        -----  ------            -----  ------            -----  ------    
     000016F0  A$lcc1085 |    000016F2  A$lcc1085 |    000016F2  C$main.c$
     000016F5  A$lcc1085 |    000016F8  A$lcc1085 |    000016F8  C$main.c$
     000016FA  A$lcc1085 |    000016FA  C$main.c$ |    000016FA  C$main.c$
     000016FC  A$lcc1085 |    000016FE  A$lcc1085 |    000016FE  C$main.c$
     00001701  A$lcc1085 |    00001703  A$lcc1085 |    00001703  C$main.c$
     00001706  A$lcc1085 |    00001708  A$lcc1085 |    00001708  C$main.c$
     0000170B  A$lcc1085 |    0000170D  A$lcc1085 |    0000170D  C$main.c$
     00001710  A$lcc1085 |    00001712  A$lcc1085 |    00001712  C$main.c$
     00001715  A$lcc1085 |    00001717  A$lcc1085 |    00001717  C$main.c$
     0000171A  A$lcc1085 |    0000171D  A$lcc1085 |    0000171D  C$main.c$
     0000171F  A$lcc1085 |    0000171F  C$main.c$ |    0000171F  C$main.c$
     00001722  A$lcc1085 |    00001723  A$lcc1085 |    00001724  A$lcc1085
     00001725  A$lcc1085 |    00001726  A$lcc1085 |    00001728  A$lcc1085
     0000172A  A$lcc1085 |    0000172B  A$lcc1085 |    0000172D  A$lcc1085
     0000172E  A$lcc1085 |    00001730  A$lcc1085 |    00001732  A$lcc1085
     00001734  A$lcc1085 |    00001736  A$lcc1085 |    00001737  A$lcc1085
     00001739  A$lcc1085 |    0000173B  A$lcc1085 |    0000173D  A$lcc1085
     0000173E  A$lcc1085 |    00001740  A$lcc1085 |    00001742  A$lcc1085
     00001744  A$lcc1085 |    00001744  C$main.c$ |    00001747  A$lcc1085
     00001749  A$lcc1085 |    00001749  C$main.c$ |    0000174C  A$lcc1085
     0000174E  A$lcc1085 |    0000174E  C$main.c$ |    00001751  A$lcc1085
     00001753  A$lcc1085 |    00001753  C$main.c$ |    00001756  A$lcc1085
     00001758  A$lcc1085 |    00001758  C$main.c$ |    0000175B  A$lcc1085
     0000175D  A$lcc1085 |    0000175D  C$main.c$ |    00001760  A$lcc1085
     00001763  A$lcc1085 |    00001763  C$main.c$ |    00001763  C$main.c$
     00001766  A$lcc1085 |    00001767  A$lcc1085 |    00001769  A$lcc1085
     00001769  C$main.c$ |    0000176C  A$lcc1085 |    0000176E  A$lcc1085
     0000176E  C$main.c$ |    00001771  A$lcc1085 |    00001772  A$lcc1085
     00001774  A$lcc1085 |    00001774  C$main.c$ |    00001777  A$lcc1085
     00001779  A$lcc1085 |    00001779  C$main.c$ |    0000177C  A$lcc1085
     0000177E  A$lcc1085 |    00001780  A$lcc1085 |    00001780  C$main.c$
     00001783  A$lcc1085 |    00001783  C$main.c$ |    00001786  A$lcc1085
     00001786  C$main.c$ |    00001789  A$lcc1085 |    00001789  C$main.c$
     0000178C  A$lcc1085 |    0000178D  A$lcc1085 |    0000178F  A$lcc1085
     00001792  A$lcc1085 |    00001793  A$lcc1085 |    00001795  A$lcc1085
     00001795  C$main.c$ |    00001798  A$lcc1085 |    00001798  C$main.c$
     0000179B  A$lcc1085 |    0000179C  A$lcc1085 |    0000179E  A$lcc1085
     0000179E  C$main.c$ |    000017A1  A$lcc1085 |    000017A1  C$main.c$
     000017A4  A$lcc1085 |    000017A4  C$main.c$ |    000017A7  A$lcc1085
     000017A8  A$lcc1085 |    000017AA  A$lcc1085 |    000017AD  A$lcc1085
     000017AE  A$lcc1085 |    000017B0  A$lcc1085 |    000017B0  C$main.c$
     000017B3  A$lcc1085 |    000017B3  C$main.c$ |    000017B6  A$lcc1085
     000017B8  A$lcc1085 |    000017BA  A$lcc1085 |    000017BA  C$main.c$
     000017BD  A$lcc1085 |    000017BF  A$lcc1085 |    000017BF  C$main.c$
     000017C2  A$lcc1085 |    000017C3  A$lcc1085 |    000017C4  A$lcc1085
     000017C6  A$lcc1085 |    000017C9  A$lcc1085 |    000017CB  A$lcc1085
     000017CC  A$lcc1085 |    000017CE  A$lcc1085 |    000017D1  A$lcc1085
     000017D2  A$lcc1085 |    000017D4  A$lcc1085 |    000017D5  A$lcc1085
     000017D7  A$lcc1085 |    000017D8  A$lcc1085 |    000017D9  A$lcc1085
     000017DB  A$lcc1085 |    000017DC  A$lcc1085 |    000017DD  A$lcc1085
     000017DF  A$lcc1085 |    000017DF  C$main.c$ |    000017E2  A$lcc1085
ASxxxx Linker V03.00 + NoICE + sdld,  page 29.
Hexadecimal  [32-Bits]

Area                       Addr        Size        Decimal Bytes (Attributes)
--------------------       ----        ----        ------- ----- ------------
_CODE                  00000200    000025B8 =        9656. bytes (REL,CON)

        Value  Global            Value  Global            Value  Global    
        -----  ------            -----  ------            -----  ------    
     000017E2  C$main.c$ |    000017E5  A$lcc1085 |    000017E5  C$main.c$
     000017E5  C$main.c$ |    000017E5  XG$render |    000017E8  A$lcc1085
     000017E8  C$main.c$ |    000017E8  C$main.c$ |    000017E8  G$main$0$
     000017E8  _main     |    000017EA  A$lcc1085 |    000017EC  A$lcc1085
     000017EC  C$main.c$ |    000017ED  A$lcc1085 |    000017EF  A$lcc1085
     000017EF  C$main.c$ |    000017F1  A$lcc1085 |    000017F3  A$lcc1085
     000017F3  C$main.c$ |    000017F5  A$lcc1085 |    000017F7  A$lcc1085
     000017F7  C$main.c$ |    000017F9  A$lcc1085 |    000017FB  A$lcc1085
     000017FB  C$main.c$ |    000017FE  A$lcc1085 |    000017FF  A$lcc1085
     00001802  A$lcc1085 |    00001803  A$lcc1085 |    00001806  A$lcc1085
     00001808  A$lcc1085 |    00001808  C$main.c$ |    0000180B  A$lcc1085
     0000180C  A$lcc1085 |    0000180E  A$lcc1085 |    0000180F  A$lcc1085
     00001810  A$lcc1085 |    00001813  A$lcc1085 |    00001814  A$lcc1085
     00001817  A$lcc1085 |    00001819  A$lcc1085 |    00001819  C$main.c$
     0000181B  A$lcc1085 |    0000181D  A$lcc1085 |    0000181F  A$lcc1085
     0000181F  C$main.c$ |    00001820  A$lcc1085 |    00001820  C$main.c$
     00001823  A$lcc1085 |    00001824  A$lcc1085 |    00001827  A$lcc1085
     00001828  A$lcc1085 |    00001828  C$main.c$ |    0000182A  A$lcc1085
     0000182C  A$lcc1085 |    0000182E  A$lcc1085 |    0000182F  A$lcc1085
     0000182F  C$main.c$ |    00001831  A$lcc1085 |    00001833  A$lcc1085
     00001834  A$lcc1085 |    00001835  A$lcc1085 |    00001838  A$lcc1085
     00001839  A$lcc1085 |    00001839  C$main.c$ |    0000183A  A$lcc1085
     0000183C  A$lcc1085 |    0000183C  C$main.c$ |    0000183E  A$lcc1085
     00001840  A$lcc1085 |    00001840  C$main.c$ |    00001842  A$lcc1085
     00001844  A$lcc1085 |    00001844  C$main.c$ |    00001846  A$lcc1085
     00001848  A$lcc1085 |    0000184A  A$lcc1085 |    0000184A  C$main.c$
     0000184C  A$lcc1085 |    0000184E  A$lcc1085 |    00001850  A$lcc1085
     00001850  C$main.c$ |    00001852  A$lcc1085 |    00001854  A$lcc1085
     00001856  A$lcc1085 |    00001856  C$main.c$ |    00001858  A$lcc1085
     0000185A  A$lcc1085 |    0000185C  A$lcc1085 |    0000185C  C$main.c$
     0000185F  A$lcc1085 |    00001861  A$lcc1085 |    00001861  C$main.c$
     00001864  A$lcc1085 |    00001866  A$lcc1085 |    00001866  C$main.c$
     00001869  A$lcc1085 |    00001869  C$main.c$ |    0000186A  A$lcc1085
     0000186A  C$main.c$ |    0000186D  A$lcc1085 |    0000186F  A$lcc1085
     00001872  A$lcc1085 |    00001872  C$main.c$ |    00001875  A$lcc1085
     00001876  A$lcc1085 |    00001879  A$lcc1085 |    0000187A  A$lcc1085
     0000187B  A$lcc1085 |    0000187B  C$main.c$ |    0000187B  C$main.c$
     0000187E  A$lcc1085 |    0000187F  A$lcc1085 |    00001881  A$lcc1085
     00001884  A$lcc1085 |    00001885  A$lcc1085 |    00001887  A$lcc1085
     00001889  A$lcc1085 |    00001889  C$main.c$ |    00001889  C$main.c$
     0000188C  A$lcc1085 |    0000188C  C$main.c$ |    0000188E  A$lcc1085
     0000188E  C$main.c$ |    0000188E  C$main.c$ |    00001891  A$lcc1085
     00001891  C$main.c$ |    00001891  C$main.c$ |    00001891  XG$main$0
     00001893  G$RESET_T |    00001893  _RESET_TI |    0000189D  A$lcc1085
     0000189D  C$sound.c |    0000189D  C$sound.c |    0000189D  G$sfx_upd
     0000189D  _sfx_upda |    0000189F  A$lcc1085 |    000018A0  A$lcc1085
     000018A2  A$lcc1085 |    000018A3  A$lcc1085 |    000018A3  C$sound.c
     000018A6  A$lcc1085 |    000018A8  A$lcc1085 |    000018A9  A$lcc1085
     000018AA  A$lcc1085 |    000018AB  A$lcc1085 |    000018AD  A$lcc1085
     000018AF  A$lcc1085 |    000018B1  A$lcc1085 |    000018B1  C$sound.c
     000018B2  A$lcc1085 |    000018B4  A$lcc1085 |    000018B5  A$lcc1085
ASxxxx Linker V03.00 + NoICE + sdld,  page 30.
Hexadecimal  [32-Bits]

Area                       Addr        Size        Decimal Bytes (Attributes)
--------------------       ----        ----        ------- ----- ------------
_CODE                  00000200    000025B8 =        9656. bytes (REL,CON)

        Value  Global            Value  Global            Value  Global    
        -----  ------            -----  ------            -----  ------    
     000018B8  A$lcc1085 |    000018B9  A$lcc1085 |    000018B9  C$sound.c
     000018BB  A$lcc1085 |    000018BB  C$sound.c |    000018BB  C$sound.c
     000018BC  A$lcc1085 |    000018BD  A$lcc1085 |    000018BD  C$sound.c
     000018BD  C$sound.c |    000018BE  A$lcc1085 |    000018BE  C$sound.c
     000018BE  XG$sfx_up |    000018C0  A$lcc1085 |    000018C0  C$sound.c
     000018C0  G$sfx_pla |    000018C0  _sfx_play |    000018C2  A$lcc1085
     000018C3  A$lcc1085 |    000018C4  A$lcc1085 |    000018C4  C$sound.c
     000018C5  A$lcc1085 |    000018C7  A$lcc1085 |    000018C8  A$lcc1085
     000018C8  C$sound.c |    000018C9  A$lcc1085 |    000018CB  A$lcc1085
     000018CC  A$lcc1085 |    000018CF  A$lcc1085 |    000018D0  A$lcc1085
     000018D0  C$sound.c |    000018D3  A$lcc1085 |    000018D5  A$lcc1085
     000018D6  A$lcc1085 |    000018D8  A$lcc1085 |    000018D9  A$lcc1085
     000018DA  A$lcc1085 |    000018DB  A$lcc1085 |    000018DC  A$lcc1085
     000018DD  A$lcc1085 |    000018DE  A$lcc1085 |    000018DF  A$lcc1085
     000018E0  A$lcc1085 |    000018E0  C$sound.c |    000018E1  A$lcc1085
     000018E2  A$lcc1085 |    000018E3  A$lcc1085 |    000018E4  A$lcc1085
     000018E4  C$sound.c |    000018E7  A$lcc1085 |    000018E8  A$lcc1085
     000018E9  A$lcc1085 |    000018EA  A$lcc1085 |    000018EC  A$lcc1085
     000018ED  A$lcc1085 |    000018EE  A$lcc1085 |    000018EF  A$lcc1085
     000018F1  A$lcc1085 |    000018F2  A$lcc1085 |    000018F2  C$sound.c
     000018F5  A$lcc1085 |    000018F6  A$lcc1085 |    000018F7  A$lcc1085
     000018F8  A$lcc1085 |    000018FA  A$lcc1085 |    000018FB  A$lcc1085
     000018FC  A$lcc1085 |    000018FD  A$lcc1085 |    000018FF  A$lcc1085
     00001900  A$lcc1085 |    00001900  C$sound.c |    00001903  A$lcc1085
     00001904  A$lcc1085 |    00001905  A$lcc1085 |    00001906  A$lcc1085
     00001908  A$lcc1085 |    00001909  A$lcc1085 |    0000190A  A$lcc1085
     0000190B  A$lcc1085 |    0000190D  A$lcc1085 |    0000190E  A$lcc1085
     0000190E  C$sound.c |    00001911  A$lcc1085 |    00001912  A$lcc1085
     00001913  A$lcc1085 |    00001914  A$lcc1085 |    00001916  A$lcc1085
     00001917  A$lcc1085 |    00001918  A$lcc1085 |    00001919  A$lcc1085
     0000191B  A$lcc1085 |    0000191C  A$lcc1085 |    0000191C  C$sound.c
     0000191E  A$lcc1085 |    0000191F  A$lcc1085 |    00001920  A$lcc1085
     00001922  A$lcc1085 |    00001924  A$lcc1085 |    00001925  A$lcc1085
     00001926  A$lcc1085 |    00001928  A$lcc1085 |    0000192A  A$lcc1085
     0000192B  A$lcc1085 |    0000192D  A$lcc1085 |    0000192F  A$lcc1085
     00001931  A$lcc1085 |    00001932  A$lcc1085 |    00001934  A$lcc1085
     00001936  A$lcc1085 |    00001938  A$lcc1085 |    00001938  C$sound.c
     00001938  C$sound.c |    00001939  A$lcc1085 |    0000193B  A$lcc1085
     0000193B  C$sound.c |    0000193D  A$lcc1085 |    0000193E  A$lcc1085
     0000193F  A$lcc1085 |    0000193F  C$sound.c |    00001940  A$lcc1085
     00001941  A$lcc1085 |    00001942  A$lcc1085 |    00001944  A$lcc1085
     00001945  A$lcc1085 |    00001946  A$lcc1085 |    00001946  C$sound.c
     00001947  A$lcc1085 |    00001948  A$lcc1085 |    00001949  A$lcc1085
     0000194B  A$lcc1085 |    0000194C  A$lcc1085 |    0000194D  A$lcc1085
     0000194D  C$sound.c |    0000194E  A$lcc1085 |    0000194F  A$lcc1085
     00001950  A$lcc1085 |    00001952  A$lcc1085 |    00001953  A$lcc1085
     00001954  A$lcc1085 |    00001955  A$lcc1085 |    00001956  A$lcc1085
     00001958  A$lcc1085 |    00001958  C$sound.c |    0000195A  A$lcc1085
     0000195A  C$sound.c |    0000195A  C$sound.c |    0000195B  A$lcc1085
     0000195D  A$lcc1085 |    0000195D  C$sound.c |    0000195F  A$lcc1085
     00001960  A$lcc1085 |    00001961  A$lcc1085 |    00001961  C$sound.c
ASxxxx Linker V03.00 + NoICE + sdld,  page 31.
Hexadecimal  [32-Bits]

Area                       Addr        Size        Decimal Bytes (Attributes)
--------------------       ----        ----        ------- ----- ------------
_CODE                  00000200    000025B8 =        9656. bytes (REL,CON)

        Value  Global            Value  Global            Value  Global    
        -----  ------            -----  ------            -----  ------    
     00001962  A$lcc1085 |    00001963  A$lcc1085 |    00001964  A$lcc1085
     00001966  A$lcc1085 |    00001967  A$lcc1085 |    00001968  A$lcc1085
     00001968  C$sound.c |    00001969  A$lcc1085 |    0000196A  A$lcc1085
     0000196B  A$lcc1085 |    0000196D  A$lcc1085 |    0000196E  A$lcc1085
     0000196F  A$lcc1085 |    00001970  A$lcc1085 |    00001971  A$lcc1085
     00001973  A$lcc1085 |    00001973  C$sound.c |    00001975  A$lcc1085
     00001975  C$sound.c |    00001975  C$sound.c |    00001976  A$lcc1085
     00001978  A$lcc1085 |    00001978  C$sound.c |    0000197A  A$lcc1085
     0000197B  A$lcc1085 |    0000197C  A$lcc1085 |    0000197C  C$sound.c
     0000197D  A$lcc1085 |    0000197E  A$lcc1085 |    0000197F  A$lcc1085
     00001981  A$lcc1085 |    00001982  A$lcc1085 |    00001983  A$lcc1085
     00001983  C$sound.c |    00001984  A$lcc1085 |    00001985  A$lcc1085
     00001986  A$lcc1085 |    00001988  A$lcc1085 |    00001989  A$lcc1085
     0000198A  A$lcc1085 |    0000198A  C$sound.c |    0000198B  A$lcc1085
     0000198C  A$lcc1085 |    0000198D  A$lcc1085 |    0000198F  A$lcc1085
     00001990  A$lcc1085 |    00001991  A$lcc1085 |    00001992  A$lcc1085
     00001993  A$lcc1085 |    00001995  A$lcc1085 |    00001995  C$sound.c
     00001997  A$lcc1085 |    00001997  C$sound.c |    00001997  C$sound.c
     00001998  A$lcc1085 |    0000199A  A$lcc1085 |    0000199A  C$sound.c
     0000199C  A$lcc1085 |    0000199D  A$lcc1085 |    0000199E  A$lcc1085
     0000199E  C$sound.c |    0000199F  A$lcc1085 |    000019A0  A$lcc1085
     000019A1  A$lcc1085 |    000019A3  A$lcc1085 |    000019A4  A$lcc1085
     000019A5  A$lcc1085 |    000019A5  C$sound.c |    000019A6  A$lcc1085
     000019A7  A$lcc1085 |    000019A8  A$lcc1085 |    000019AA  A$lcc1085
     000019AB  A$lcc1085 |    000019AC  A$lcc1085 |    000019AD  A$lcc1085
     000019AE  A$lcc1085 |    000019B0  A$lcc1085 |    000019B0  C$sound.c
     000019B0  C$sound.c |    000019B2  A$lcc1085 |    000019B4  A$lcc1085
     000019B4  C$sound.c |    000019B6  A$lcc1085 |    000019B8  A$lcc1085
     000019B8  C$sound.c |    000019BA  A$lcc1085 |    000019BC  A$lcc1085
     000019BE  A$lcc1085 |    000019BE  C$sound.c |    000019BE  XG$sfx_pl
     000019BF  _hUGE_ini |    000019C1  hUGE_init |    00001A17  _hUGE_mut
     00001A19  hUGE_mute |    00001C67  _hUGE_set |    00001C68  hUGE_set_
     00001E2D  _hUGE_dos |    00001E2D  hUGE_doso |    00002159  _get_vram
     00002161  _get_win_ |    00002169  _get_bkg_ |    00002190  _set_vram
     0000219F  _set_win_ |    000021A7  _set_bkg_ |    000021D1  ___hide_m
     000021F8  ___move_m |    0000223B  ___move_m |    0000227E  ___move_m
     000022FA  ___printf |    00002649  _sprintf  |    0000266A  ___move_m
     000026A9  _get_win_ |    000026B1  _get_bkg_ |    000026D0  __divsuch
     000026D6  __modsuch |    000026DF  __divusch |    000026E8  __modusch
     000026F5  __divscha |    000026FA  __modscha |    00002701  __divsint
     0000270A  __modsint |    00002716  __divucha |    0000271B  __moducha
     00002722  __divuint |    0000272B  __moduint |    00002737  .div8    
     00002737  .mod8     |    0000273F  .div16    |    0000273F  .mod16   
     00002775  .divu8    |    00002775  .modu8    |    00002778  .divu16  
     00002778  .modu16  
ASxxxx Linker V03.00 + NoICE + sdld,  page 32.
Hexadecimal  [32-Bits]

Area                       Addr        Size        Decimal Bytes (Attributes)
--------------------       ----        ----        ------- ----- ------------
_HEADER0               00000000    00000001 =           1. bytes (ABS,CON)

        Value  Global            Value  Global            Value  Global    
        -----  ------            -----  ------            -----  ------    
     00000020  .call_hl 
ASxxxx Linker V03.00 + NoICE + sdld,  page 33.
Hexadecimal  [32-Bits]

Area                       Addr        Size        Decimal Bytes (Attributes)
--------------------       ----        ----        ------- ----- ------------
_HEADER1               00000000    00000005 =           5. bytes (ABS,CON)

        Value  Global            Value  Global            Value  Global    
        -----  ------            -----  ------            -----  ------    
     00000028  .MemsetSm
ASxxxx Linker V03.00 + NoICE + sdld,  page 34.
Hexadecimal  [32-Bits]

Area                       Addr        Size        Decimal Bytes (Attributes)
--------------------       ----        ----        ------- ----- ------------
_HEADER2               00000000    00000007 =           7. bytes (ABS,CON)

        Value  Global            Value  Global            Value  Global    
        -----  ------            -----  ------            -----  ------    
     00000030  .MemcpySm
ASxxxx Linker V03.00 + NoICE + sdld,  page 35.
Hexadecimal  [32-Bits]

Area                       Addr        Size        Decimal Bytes (Attributes)
--------------------       ----        ----        ------- ----- ------------
_HEADER3               00000000    00000008 =           8. bytes (ABS,CON)

        Value  Global            Value  Global            Value  Global    
        -----  ------            -----  ------            -----  ------    
ASxxxx Linker V03.00 + NoICE + sdld,  page 36.
Hexadecimal  [32-Bits]

Area                       Addr        Size        Decimal Bytes (Attributes)
--------------------       ----        ----        ------- ----- ------------
_HEADER4               00000000    0000004C =          76. bytes (ABS,CON)

        Value  Global            Value  Global            Value  Global    
        -----  ------            -----  ------            -----  ------    
     00000080  .int      |    0000008F  _wait_int |    0000009C  __standar
     000000AC  _refresh_
ASxxxx Linker V03.00 + NoICE + sdld,  page 37.
Hexadecimal  [32-Bits]

Area                       Addr        Size        Decimal Bytes (Attributes)
--------------------       ----        ----        ------- ----- ------------
_HEADER5               00000000    00000002 =           2. bytes (ABS,CON)

        Value  Global            Value  Global            Value  Global    
        -----  ------            -----  ------            -----  ------    
ASxxxx Linker V03.00 + NoICE + sdld,  page 38.
Hexadecimal  [32-Bits]

Area                       Addr        Size        Decimal Bytes (Attributes)
--------------------       ----        ----        ------- ----- ------------
_HEADER6               00000000    00000030 =          48. bytes (ABS,CON)

        Value  Global            Value  Global            Value  Global    
        -----  ------            -----  ------            -----  ------    
ASxxxx Linker V03.00 + NoICE + sdld,  page 39.
Hexadecimal  [32-Bits]

Area                       Addr        Size        Decimal Bytes (Attributes)
--------------------       ----        ----        ------- ----- ------------
_HEADER7               00000000    00000006 =           6. bytes (ABS,CON)

        Value  Global            Value  Global            Value  Global    
        -----  ------            -----  ------            -----  ------    
ASxxxx Linker V03.00 + NoICE + sdld,  page 40.
Hexadecimal  [32-Bits]

Area                       Addr        Size        Decimal Bytes (Attributes)
--------------------       ----        ----        ------- ----- ------------
_HEADER8               00000000    00000003 =           3. bytes (ABS,CON)

        Value  Global            Value  Global            Value  Global    
        -----  ------            -----  ------            -----  ------    
ASxxxx Linker V03.00 + NoICE + sdld,  page 41.
Hexadecimal  [32-Bits]

Area                       Addr        Size        Decimal Bytes (Attributes)
--------------------       ----        ----        ------- ----- ------------
_HEADER9               00000000    00000001 =           1. bytes (ABS,CON)

        Value  Global            Value  Global            Value  Global    
        -----  ------            -----  ------            -----  ------    
ASxxxx Linker V03.00 + NoICE + sdld,  page 42.
Hexadecimal  [32-Bits]

Area                       Addr        Size        Decimal Bytes (Attributes)
--------------------       ----        ----        ------- ----- ------------
_HEADERa               00000000    00000001 =           1. bytes (ABS,CON)

        Value  Global            Value  Global            Value  Global    
        -----  ------            -----  ------            -----  ------    
ASxxxx Linker V03.00 + NoICE + sdld,  page 43.
Hexadecimal  [32-Bits]

Area                       Addr        Size        Decimal Bytes (Attributes)
--------------------       ----        ----        ------- ----- ------------
_HEADERb               00000000    00000001 =           1. bytes (ABS,CON)

        Value  Global            Value  Global            Value  Global    
        -----  ------            -----  ------            -----  ------    
ASxxxx Linker V03.00 + NoICE + sdld,  page 44.
Hexadecimal  [32-Bits]

Area                       Addr        Size        Decimal Bytes (Attributes)
--------------------       ----        ----        ------- ----- ------------
_HEADERc               00000000    00000002 =           2. bytes (ABS,CON)

        Value  Global            Value  Global            Value  Global    
        -----  ------            -----  ------            -----  ------    
ASxxxx Linker V03.00 + NoICE + sdld,  page 45.
Hexadecimal  [32-Bits]

Area                       Addr        Size        Decimal Bytes (Attributes)
--------------------       ----        ----        ------- ----- ------------
_HEADERd               00000000    00000001 =           1. bytes (ABS,CON)

        Value  Global            Value  Global            Value  Global    
        -----  ------            -----  ------            -----  ------    
ASxxxx Linker V03.00 + NoICE + sdld,  page 46.
Hexadecimal  [32-Bits]

Area                       Addr        Size        Decimal Bytes (Attributes)
--------------------       ----        ----        ------- ----- ------------
_HEADERe               00000000    00000001 =           1. bytes (ABS,CON)

        Value  Global            Value  Global            Value  Global    
        -----  ------            -----  ------            -----  ------    
ASxxxx Linker V03.00 + NoICE + sdld,  page 47.
Hexadecimal  [32-Bits]

Area                       Addr        Size        Decimal Bytes (Attributes)
--------------------       ----        ----        ------- ----- ------------
_HEADERf               00000000    00000002 =           2. bytes (ABS,CON)

        Value  Global            Value  Global            Value  Global    
        -----  ------            -----  ------            -----  ------    
ASxxxx Linker V03.00 + NoICE + sdld,  page 48.
Hexadecimal  [32-Bits]

Area                       Addr        Size        Decimal Bytes (Attributes)
--------------------       ----        ----        ------- ----- ------------
_HEADER10              00000000    00000084 =         132. bytes (ABS,CON)

        Value  Global            Value  Global            Value  Global    
        -----  ------            -----  ------            -----  ------    
     00000150  .reset    |    00000150  _reset    |    00000157  .code_sta
     000001B9  _exit     |    000001BD  _set_inte
ASxxxx Linker V03.00 + NoICE + sdld,  page 49.
Hexadecimal  [32-Bits]

Area                       Addr        Size        Decimal Bytes (Attributes)
--------------------       ----        ----        ------- ----- ------------
_HEADER11              00000000    00000001 =           1. bytes (ABS,CON)

        Value  Global            Value  Global            Value  Global    
        -----  ------            -----  ------            -----  ------    
ASxxxx Linker V03.00 + NoICE + sdld,  page 50.
Hexadecimal  [32-Bits]

Area                       Addr        Size        Decimal Bytes (Attributes)
--------------------       ----        ----        ------- ----- ------------
_HOME                  000027B8    000003BC =         956. bytes (REL,CON)

        Value  Global            Value  Global            Value  Global    
        -----  ------            -----  ------            -----  ------    
     000027B8  .memset_s |    000027C1  .memcpy_s |    000027DE  .remove_V
     000027E1  .remove_i |    000027FE  .add_VBL  |    00002801  .add_int 
     0000280C  .wait_vbl |    0000280C  _wait_vbl |    0000281C  .display_
     0000281C  _display_ |    00002834  _remove_V |    0000283F  _add_VBL 
     0000284A  A$lcc1085 |    0000284A  C$sound.c |    0000284A  G$hUGE_in
     0000284A  _hUGE_ini |    0000284B  A$lcc1085 |    0000284C  A$lcc1085
     0000284D  A$lcc1085 |    0000284E  A$lcc1085 |    0000284F  A$lcc1085
     00002850  A$lcc1085 |    00002850  C$sound.c |    00002851  A$lcc1085
     00002851  C$sound.c |    00002852  A$lcc1085 |    00002854  A$lcc1085
     00002857  A$lcc1085 |    00002858  A$lcc1085 |    00002858  C$sound.c
     00002859  A$lcc1085 |    0000285B  A$lcc1085 |    0000285C  A$lcc1085
     0000285D  A$lcc1085 |    0000285E  A$lcc1085 |    00002861  A$lcc1085
     00002862  A$lcc1085 |    00002862  C$sound.c |    00002863  A$lcc1085
     00002865  A$lcc1085 |    00002868  A$lcc1085 |    00002869  A$lcc1085
     0000286A  A$lcc1085 |    0000286B  A$lcc1085 |    0000286C  A$lcc1085
     0000286C  C$sound.c |    0000286C  XG$hUGE_i |    0000286D  G$SFX_0$0
     0000286D  _SFX_0    |    00002874  G$SFX_1$0 |    00002874  _SFX_1   
     0000287A  G$SFX_2$0 |    0000287A  _SFX_2    |    00002881  G$SFX_3$0
     00002881  _SFX_3    |    00002888  G$SFX_4$0 |    00002888  _SFX_4   
     0000288E  G$SFX_5$0 |    0000288E  _SFX_5    |    00002895  G$SFX_6$0
     00002895  _SFX_6    |    0000289C  G$SFX_7$0 |    0000289C  _SFX_7   
     000028A2  A$lcc1085 |    000028A2  C$sound.c |    000028A2  C$sound.c
     000028A2  G$mute_ch |    000028A2  _mute_cha |    000028A3  A$lcc1085
     000028A5  A$lcc1085 |    000028A6  A$lcc1085 |    000028A8  A$lcc1085
     000028A9  A$lcc1085 |    000028AB  A$lcc1085 |    000028AC  A$lcc1085
     000028AE  A$lcc1085 |    000028AE  C$sound.c |    000028B0  A$lcc1085
     000028B2  A$lcc1085 |    000028B4  A$lcc1085 |    000028B6  A$lcc1085
     000028B8  A$lcc1085 |    000028BA  A$lcc1085 |    000028BA  C$sound.c
     000028BC  A$lcc1085 |    000028BE  A$lcc1085 |    000028BE  C$sound.c
     000028BE  XG$mute_c |    000028BF  A$lcc1085 |    000028BF  C$sound.c
     000028BF  C$sound.c |    000028BF  G$music_p |    000028BF  _music_pl
     000028C1  A$lcc1085 |    000028C3  A$lcc1085 |    000028C3  C$sound.c
     000028C6  A$lcc1085 |    000028C8  A$lcc1085 |    000028C8  C$sound.c
     000028CB  A$lcc1085 |    000028CD  A$lcc1085 |    000028CD  C$sound.c
     000028CD  XG$music_ |    000028CE  A$lcc1085 |    000028CE  C$sound.c
     000028CE  C$sound.c |    000028CE  G$music_r |    000028CE  _music_re
     000028D0  A$lcc1085 |    000028D2  A$lcc1085 |    000028D2  C$sound.c
     000028D5  A$lcc1085 |    000028D7  A$lcc1085 |    000028D7  C$sound.c
     000028DA  A$lcc1085 |    000028DC  A$lcc1085 |    000028DC  C$sound.c
     000028DC  XG$music_ |    000028DD  A$lcc1085 |    000028DD  C$sound.c
     000028DD  C$sound.c |    000028DD  G$music_p |    000028DD  _music_pa
     000028E0  A$lcc1085 |    000028E1  A$lcc1085 |    000028E4  A$lcc1085
     000028E5  A$lcc1085 |    000028E5  C$sound.c |    000028E8  A$lcc1085
     000028E8  C$sound.c |    000028EB  A$lcc1085 |    000028ED  A$lcc1085
     000028ED  C$sound.c |    000028F0  A$lcc1085 |    000028F2  A$lcc1085
     000028F2  C$sound.c |    000028F2  XG$music_ |    000028F3  _rand    
     000028F3  _randw    |    0000291E  _initrand |    00002920  .initrand
     00002929  _set_tile |    0000292E  _set_bkg_ |    0000292E  _set_win_
     00002936  _set_spri |    00002966  _fill_bkg |    00002978  .padup   
     00002978  _waitpadu |    00002988  .jpad     |    00002988  _joypad  
ASxxxx Linker V03.00 + NoICE + sdld,  page 51.
Hexadecimal  [32-Bits]

Area                       Addr        Size        Decimal Bytes (Attributes)
--------------------       ----        ----        ------- ----- ------------
_HOME                  000027B8    000003BC =         956. bytes (REL,CON)

        Value  Global            Value  Global            Value  Global    
        -----  ------            -----  ------            -----  ------    
     000029B0  _waitpad  |    000029B1  .wait_pad |    000029B8  ___sdcc_c
     000029E8  _add_LCD  |    000029F3  .add_LCD  |    000029F9  _remove_L
     00002A04  .remove_L |    00002A0A  _set_bkg_ |    00002A1E  _uitoa   
     00002A2D  _itoa     |    00002A3C  .itoa     |    00002A50  .utoa    
     00002AC4  .fill_rec |    00002ACD  .fill_rec |    00002B1A  .set_xy_w
     00002B23  .set_xy_b |    00002B32  .set_xy_t
ASxxxx Linker V03.00 + NoICE + sdld,  page 52.
Hexadecimal  [32-Bits]

Area                       Addr        Size        Decimal Bytes (Attributes)
--------------------       ----        ----        ------- ----- ------------
_CODE_0                00002B74    00000440 =        1088. bytes (REL,CON)

        Value  Global            Value  Global            Value  Global    
        -----  ------            -----  ------            -----  ------    
     00002B74  G$FONT$0_ |    00002B74  _FONT    
ASxxxx Linker V03.00 + NoICE + sdld,  page 53.
Hexadecimal  [32-Bits]

Area                       Addr        Size        Decimal Bytes (Attributes)
--------------------       ----        ----        ------- ----- ------------
_INITIALIZER           00002FB4    00000074 =         116. bytes (REL,CON)

        Value  Global            Value  Global            Value  Global    
        -----  ------            -----  ------            -----  ------    
     00002FB4  Fmain$__x |    00002FD8  Fmain$__x |    00002FDB  Fmain$__x
     00002FDF  Fmain$__x |    00002FE3  Fmain$__x |    00002FEA  Fmain$__x
     00002FEF  Fmain$__x |    00002FF0  Fmain$__x |    00002FF5  Fmain$__x
     00002FFA  Fmain$__x |    00003001  Fmain$__x |    00003007  Fmain$__x
     00003008  Fmain$__x |    00003020  Fmain$__x |    00003022  Fsound$__
ASxxxx Linker V03.00 + NoICE + sdld,  page 54.
Hexadecimal  [32-Bits]

Area                       Addr        Size        Decimal Bytes (Attributes)
--------------------       ----        ----        ------- ----- ------------
_GSINIT                00003028    0000000C =          12. bytes (REL,CON)

        Value  Global            Value  Global            Value  Global    
        -----  ------            -----  ------            -----  ------    
     00003028  gsinit   
ASxxxx Linker V03.00 + NoICE + sdld,  page 55.
Hexadecimal  [32-Bits]

Area                       Addr        Size        Decimal Bytes (Attributes)
--------------------       ----        ----        ------- ----- ------------
_GSFINAL               00003034    00000001 =           1. bytes (REL,CON)

        Value  Global            Value  Global            Value  Global    
        -----  ------            -----  ------            -----  ------    
ASxxxx Linker V03.00 + NoICE + sdld,  page 56.
Hexadecimal  [32-Bits]

Area                       Addr        Size        Decimal Bytes (Attributes)
--------------------       ----        ----        ------- ----- ------------
_DATA                  0000C0A0    000000EC =         236. bytes (REL,CON)

        Value  Global            Value  Global            Value  Global    
        -----  ------            -----  ------            -----  ------    
     0000C0A0  __cpu     |    0000C0A1  __is_GBA  |    0000C0A2  .mode    
     0000C0A3  .sys_time |    0000C0A3  _sys_time |    0000C0A5  .int_0x40
     0000C0B1  G$scroll$ |    0000C0B1  _scroll   |    0000C0BB  G$PLAYER$
     0000C0BB  _PLAYER   |    0000C0C3  G$LOG_FRO |    0000C0C3  _LOG_FROG
     0000C0CB  G$FLY$0_0 |    0000C0CB  _FLY      |    0000C0D3  G$joy$0_0
     0000C0D3  _joy      |    0000C0D4  G$last_jo |    0000C0D4  _last_joy
     0000C0D5  G$is_movi |    0000C0D5  _is_movin |    0000C0D6  G$is_anim
     0000C0D6  _is_anima |    0000C0D7  G$is_dyin |    0000C0D7  _is_dying
     0000C0D8  G$turtles |    0000C0D8  _turtles_ |    0000C0D9  G$move_x$
     0000C0D9  _move_x   |    0000C0DA  G$move_y$ |    0000C0DA  _move_y  
     0000C0DB  G$scx_cou |    0000C0DB  _scx_coun |    0000C0DC  G$turtle_
     0000C0DC  _turtle_c |    0000C0DD  G$dive_co |    0000C0DD  _dive_cou
     0000C0DE  G$timer$0 |    0000C0DE  _timer    |    0000C0E0  G$fly_tim
     0000C0E0  _fly_time |    0000C0E2  G$fly_res |    0000C0E2  _fly_resp
     0000C0E4  G$timer_t |    0000C0E4  _timer_ti |    0000C0E5  G$pause_t
     0000C0E5  _pause_ti |    0000C0E6  G$flash$0 |    0000C0E6  _flash   
     0000C0E7  G$GAMESTA |    0000C0E7  _GAMESTAT |    0000C0E8  G$TIMERST
     0000C0E8  _TIMERSTA |    0000C0E9  G$turtle_ |    0000C0E9  _turtle_t
     0000C0EA  G$dive_ti |    0000C0EA  _dive_til |    0000C0EB  G$cave$0_
     0000C0EB  _cave     |    0000C0F0  G$y_min$0 |    0000C0F0  _y_min   
     0000C0F1  G$vram_ad |    0000C0F1  _vram_add |    0000C0F3  G$score$0
     0000C0F3  _score    |    0000C0F5  G$score_b |    0000C0F5  _score_bu
     0000C0FA  G$current |    0000C0FA  _current_ |    0000C0FB  G$level_b
     0000C0FB  _level_bu |    0000C113  G$animati |    0000C113  _animatio
     0000C114  G$death_a |    0000C114  _death_an |    0000C115  G$seed$0_
     0000C115  _seed     |    0000C117  G$debug_r |    0000C117  _debug_rn
     0000C118  G$debug_f |    0000C118  _debug_fl |    0000C119  G$music_p
     0000C119  _music_pa |    0000C11A  G$music_p |    0000C11A  _music_pl
     0000C137  _hUGE_cur |    0000C137  hUGE_curr |    0000C138  _hUGE_mut
     0000C17F  ___rand_s |    0000C181  ___curren |    0000C183  ___curren
     0000C184  .int_0x48
ASxxxx Linker V03.00 + NoICE + sdld,  page 57.
Hexadecimal  [32-Bits]

Area                       Addr        Size        Decimal Bytes (Attributes)
--------------------       ----        ----        ------- ----- ------------
_INITIALIZED           0000C18C    00000074 =         116. bytes (REL,CON)

        Value  Global            Value  Global            Value  Global    
        -----  ------            -----  ------            -----  ------    
     0000C18C  G$scroll_ |    0000C18C  _scroll_r |    0000C1B0  G$turtle_
     0000C1B0  _turtle_d |    0000C1B3  G$turtle_ |    0000C1B3  _turtle_d
     0000C1B7  G$turtle_ |    0000C1B7  _turtle_t |    0000C1BB  G$dive_ti
     0000C1BB  _dive_til |    0000C1C2  G$cave_fl |    0000C1C2  _cave_fly
     0000C1C7  G$lives$0 |    0000C1C7  _lives    |    0000C1C8  G$PLAYER1
     0000C1C8  _PLAYER1U |    0000C1CD  G$PLAYER2 |    0000C1CD  _PLAYER2U
     0000C1D2  G$level_t |    0000C1D2  _level_te |    0000C1D9  G$pause_t
     0000C1D9  _pause_te |    0000C1DF  G$death_a |    0000C1DF  _death_an
     0000C1E0  G$LYs$0_0 |    0000C1E0  _LYs      |    0000C1F8  G$current
     0000C1F8  _current  |    0000C1FA  G$Sound_C |    0000C1FA  _Sound_Ch
     0000C1FE  ___render |    0000C1FF  __map_til
ASxxxx Linker V03.00 + NoICE + sdld,  page 58.
Hexadecimal  [32-Bits]

Area                       Addr        Size        Decimal Bytes (Attributes)
--------------------       ----        ----        ------- ----- ------------
_HRAM12                00000000    00000003 =           3. bytes (ABS,CON)

        Value  Global            Value  Global            Value  Global    
        -----  ------            -----  ------            -----  ------    
     0000FF90  __current |    0000FF92  __shadow_
ASxxxx Linker V03.00 + NoICE + sdld,  page 59.
Hexadecimal  [32-Bits]

Area                       Addr        Size        Decimal Bytes (Attributes)
--------------------       ----        ----        ------- ----- ------------
_CODE_1                00014000    0000224E =        8782. bytes (REL,CON)

        Value  Global            Value  Global            Value  Global    
        -----  ------            -----  ------            -----  ------    
     00014000  G$BKG_MAP |    00014000  _BKG_MAP  |    00014400  G$BKG_TIL
     00014400  _BKG_TILE |    000146F0  G$COLLISI |    000146F0  _COLLISIO
     00014AF0  C$fly.c$9 |    00014AF0  G$__func_ |    00014AF0  G$fly_pal
     00014AF0  ___func_f |    00014AF0  _fly_pale |    00014AF8  G$fly_til
     00014AF8  _fly_tile |    00014B38  G$fly_met |    00014B38  _fly_meta
     00014B44  G$fly_met |    00014B44  _fly_meta |    00014B46  G$FROG_LI
     00014B46  _FROG_LIV |    00014B56  C$frogger |    00014B56  G$__func_
     00014B56  G$frogger |    00014B56  ___func_f |    00014B56  _frogger_
     00014B60  G$frogger |    00014B60  _frogger_ |    00014DA0  G$frogger
     00014DA0  _frogger_ |    00014DAC  G$frogger |    00014DAC  _frogger_
     00014DB8  G$frogger |    00014DB8  _frogger_ |    00014DC4  G$frogger
     00014DC4  _frogger_ |    00014DD0  G$frogger |    00014DD0  _frogger_
     00014DDC  G$frogger |    00014DDC  _frogger_ |    00014DE8  G$frogger
     00014DE8  _frogger_ |    00014DF4  G$frogger |    00014DF4  _frogger_
     00014E00  G$frogger |    00014E00  _frogger_ |    00014E0C  G$frogger
     00014E0C  _frogger_ |    00014E1E  G$frogger |    00014E1E  _frogger_
     00014E32  G$frogger |    00014E32  _frogger_ |    00014E46  G$frogger
     00014E46  _frogger_ |    00014E78  C$frogger |    00014E78  G$__func_
     00014E78  G$frogger |    00014E78  ___func_f |    00014E78  _frogger_
     00014E80  G$frogger |    00014E80  _frogger_ |    00014EC0  G$frogger
     00014EC0  _frogger_ |    00014ECC  G$frogger |    00014ECC  _frogger_
     00014ECE  C$log_fro |    00014ECE  G$__func_ |    00014ECE  G$log_fro
     00014ECE  ___func_l |    00014ECE  _log_frog |    00014ED8  G$log_fro
     00014ED8  _log_frog |    00014F18  G$log_fro |    00014F18  _log_frog
     00014F24  G$log_fro |    00014F24  _log_frog |    00014F26  G$WIN_FRO
     00014F26  _WIN_FROG |    00014F2A  Fsample_s |    00014F2B  Fsample_s
     00014FEB  Fsample_s |    000150AB  Fsample_s |    0001516B  Fsample_s
     0001522B  Fsample_s |    000152EB  Fsample_s |    000153AB  Fsample_s
     0001546B  Fsample_s |    0001552B  Fsample_s |    000155EB  Fsample_s
     000156AB  Fsample_s |    0001576B  Fsample_s |    0001582B  Fsample_s
     000158EB  Fsample_s |    000159AB  Fsample_s |    00015A6B  Fsample_s
     00015B2B  Fsample_s |    00015BEB  Fsample_s |    00015CAB  Fsample_s
     00015D6B  Fsample_s |    00015E2B  Fsample_s |    00015EEB  Fsample_s
     00015FAB  Fsample_s |    00015FCB  Fsample_s |    00015FEB  Fsample_s
     0001600B  Fsample_s |    0001602B  Fsample_s |    00016085  Fsample_s
     000160DF  Fsample_s |    00016139  Fsample_s |    00016239  G$sample_
     00016239  _sample_s
ASxxxx Linker V03.00 + NoICE + sdld,  page 60.
Hexadecimal  [32-Bits]

Area                       Addr        Size        Decimal Bytes (Attributes)
--------------------       ----        ----        ------- ----- ------------
_HEADER_LCD0           00000000    00000003 =           3. bytes (ABS,CON)

        Value  Global            Value  Global            Value  Global    
        -----  ------            -----  ------            -----  ------    
ASxxxx Linker V03.00 + NoICE + sdld,  page 61.

Files Linked                              [ module(s) ]

C:\c_code\gbdk\lib/gb/crt0.o              [ Runtime ]
C:\Users\EMART~1\AppData\Local\Temp/lcc108520.rel
                                          [ main ]
C:\Users\EMART~1\AppData\Local\Temp/lcc108521.rel
                                          [ bkg_map ]
C:\Users\EMART~1\AppData\Local\Temp/lcc108522.rel
                                          [ bkg_tiles ]
C:\Users\EMART~1\AppData\Local\Temp/lcc108523.rel
                                          [ collision_map ]
C:\Users\EMART~1\AppData\Local\Temp/lcc108524.rel
                                          [ fly ]
C:\Users\EMART~1\AppData\Local\Temp/lcc108525.rel
                                          [ font ]
C:\Users\EMART~1\AppData\Local\Temp/lcc108526.rel
                                          [ frog_lives ]
C:\Users\EMART~1\AppData\Local\Temp/lcc108527.rel
                                          [ frogger ]
C:\Users\EMART~1\AppData\Local\Temp/lcc108528.rel
                                          [ frogger_16 ]
C:\Users\EMART~1\AppData\Local\Temp/lcc108529.rel
                                          [ log_frog ]
C:\Users\EMART~1\AppData\Local\Temp/lcc1085210.rel
                                          [ reset_timer ]
C:\Users\EMART~1\AppData\Local\Temp/lcc1085211.rel
                                          [ win_frog ]
C:\Users\EMART~1\AppData\Local\Temp/lcc1085212.rel
                                          [ sample_song ]
C:\Users\EMART~1\AppData\Local\Temp/lcc1085213.rel
                                          [ sound ]


Libraries Linked                          [ object file ]

lib/hUGEDriver.lib                        [ hUGEDriver.o ]
C:\c_code\gbdk\lib/sm83/sm83.lib          [ rand.o ]
C:\c_code\gbdk\lib/gb/gb.lib              [ sfr.o ]
C:\c_code\gbdk\lib/gb/gb.lib              [ get_tile.o ]
C:\c_code\gbdk\lib/gb/gb.lib              [ set_tile.o ]
C:\c_code\gbdk\lib/gb/gb.lib              [ metasprites_hide.o ]
C:\c_code\gbdk\lib/gb/gb.lib              [ set_data.o ]
C:\c_code\gbdk\lib/gb/gb.lib              [ metasprites_flip.o ]
C:\c_code\gbdk\lib/sm83/sm83.lib          [ sprintf.o ]
C:\c_code\gbdk\lib/gb/gb.lib              [ fill_rect_bk.o ]
C:\c_code\gbdk\lib/gb/gb.lib              [ pad.o ]
C:\c_code\gbdk\lib/gb/gb.lib              [ metasprites.o ]
C:\c_code\gbdk\lib/sm83/sm83.lib          [ __sdcc_call_hl.o ]
C:\c_code\gbdk\lib/gb/gb.lib              [ lcd.o ]
C:\c_code\gbdk\lib/gb/gb.lib              [ get_addr.o ]
C:\c_code\gbdk\lib/sm83/sm83.lib          [ div.o ]
C:\c_code\gbdk\lib/gb/gb.lib              [ set_bk_t.o ]
C:\c_code\gbdk\lib/sm83/sm83.lib          [ itoa.o ]
C:\c_code\gbdk\lib/gb/gb.lib              [ fill_rect.o ]
C:\c_code\gbdk\lib/gb/gb.lib              [ set_xy_t.o ]

ASxxxx Linker V03.00 + NoICE + sdld,  page 62.

User Base Address Definitions

_DATA=0xC0A0
_CODE=0x0200
ASxxxx Linker V03.00 + NoICE + sdld,  page 63.

User Global Definitions

_shadow_OAM=0xC000
.STACK=0xE000
.refresh_OAM=0xFF80

