ASxxxx Linker V03.00 + NoICE + sdld,  page 1.
Hexadecimal  [32-Bits]

Area                       Addr        Size        Decimal Bytes (Attributes)
--------------------       ----        ----        ------- ----- ------------
.  .ABS.               00000000    00000000 =           0. bytes (ABS,CON)

        Value  Global            Value  Global            Value  Global    
        -----  ------            -----  ------            -----  ------    
     00000000  .__.ABS.  |    00000000  _rRAMG    |    00000000  l__BASE  
     00000000  l__BSS    |    00000000  l__CABS   |    00000000  l__CODE_0
     00000000  l__DABS   |    00000000  l__HEADER |    00000000  l__HEADER
     00000000  l__HEAP   |    00000000  l__HRAM   |    00000000  l__LIT   
     00000000  s__CABS   |    00000000  s__DABS   |    00000000  s__HEADER
     00000000  s__HEADER |    00000000  s__HEADER |    00000000  s__HEADER
     00000000  s__HEADER |    00000000  s__HEADER |    00000000  s__HEADER
     00000000  s__HEADER |    00000000  s__HEADER |    00000000  s__HEADER
     00000000  s__HEADER |    00000000  s__HEADER |    00000000  s__HEADER
     00000000  s__HEADER |    00000000  s__HEADER |    00000000  s__HEADER
     00000000  s__HEADER |    00000000  s__HEADER |    00000000  s__HEADER
     00000000  s__HEADER |    00000000  s__HEADER |    00000000  s__HRAM  
     00000000  s__HRAM12 |    00000001  ___bank_f |    00000001  ___bank_f
     00000001  l__GSFINA |    00000001  l__HEADER |    00000001  l__HEADER
     00000001  l__HEADER |    00000001  l__HEADER |    00000001  l__HEADER
     00000001  l__HEADER |    00000001  l__HEADER |    00000002  l__HEADER
     00000002  l__HEADER |    00000002  l__HEADER |    00000003  l__HEADER
     00000003  l__HEADER |    00000003  l__HRAM12 |    00000005  l__HEADER
     00000006  l__HEADER |    00000007  l__HEADER |    00000008  l__HEADER
     0000000C  l__GSINIT |    00000025  l__INITIA |    00000025  l__INITIA
     00000030  l__HEADER |    00000043  l__DATA   |    0000004F  l__HEADER
     00000082  l__HEADER |    000000AC  l__CODE_1 |    00000200  s__CODE  
     000002F3  l__HOME   |    00000A97  l__CODE   |    00000C97  s__HOME  
     00000F8A  s__BASE   |    00000F8A  s__CODE_0 |    00000F8A  s__INITIA
     00000F8A  s__LIT    |    00000FAF  s__GSINIT |    00000FBB  s__GSFINA
     00002000  _rROMB0   |    00003000  _rROMB1   |    00004000  _rRAMB   
     00008000  __VRAM    |    00008000  __VRAM800 |    00008800  __VRAM880
     00009000  __VRAM900 |    00009800  __SCRN0   |    00009C00  __SCRN1  
     0000A000  __SRAM    |    0000C000  __RAM     |    0000C000  _shadow_O
     0000C0A0  s__DATA   |    0000C0E3  s__BSS    |    0000C0E3  s__INITIA
     0000C108  s__HEAP   |    0000D000  __RAMBANK |    0000E000  .STACK   
     0000FE00  __OAMRAM  |    0000FF00  _P1_REG   |    0000FF00  __IO     
     0000FF01  _SB_REG   |    0000FF02  _SC_REG   |    0000FF04  _DIV_REG 
     0000FF05  _TIMA_REG |    0000FF06  _TMA_REG  |    0000FF07  _TAC_REG 
     0000FF0F  _IF_REG   |    0000FF10  _NR10_REG |    0000FF11  _NR11_REG
     0000FF12  _NR12_REG |    0000FF13  _NR13_REG |    0000FF14  _NR14_REG
     0000FF16  _NR21_REG |    0000FF17  _NR22_REG |    0000FF18  _NR23_REG
     0000FF19  _NR24_REG |    0000FF1A  _NR30_REG |    0000FF1B  _NR31_REG
     0000FF1C  _NR32_REG |    0000FF1D  _NR33_REG |    0000FF1E  _NR34_REG
     0000FF20  _NR41_REG |    0000FF21  _NR42_REG |    0000FF22  _NR43_REG
     0000FF23  _NR44_REG |    0000FF24  _NR50_REG |    0000FF25  _NR51_REG
     0000FF26  _NR52_REG |    0000FF30  _PCM_SAMP |    0000FF30  __AUD3WAV
     0000FF40  _LCDC_REG |    0000FF41  _STAT_REG |    0000FF42  _SCY_REG 
     0000FF43  _SCX_REG  |    0000FF44  _LY_REG   |    0000FF45  _LYC_REG 
     0000FF46  _DMA_REG  |    0000FF47  _BGP_REG  |    0000FF48  _OBP0_REG
     0000FF49  _OBP1_REG |    0000FF4A  _WY_REG   |    0000FF4B  _WX_REG  
     0000FF4D  _KEY1_REG |    0000FF4F  _VBK_REG  |    0000FF51  _HDMA1_RE
     0000FF52  _HDMA2_RE |    0000FF53  _HDMA3_RE |    0000FF54  _HDMA4_RE
     0000FF55  _HDMA5_RE |    0000FF56  _RP_REG   |    0000FF68  _BCPS_REG
     0000FF69  _BCPD_REG |    0000FF6A  _OCPS_REG |    0000FF6B  _OCPD_REG
ASxxxx Linker V03.00 + NoICE + sdld,  page 2.
Hexadecimal  [32-Bits]

Area                       Addr        Size        Decimal Bytes (Attributes)
--------------------       ----        ----        ------- ----- ------------
.  .ABS.               00000000    00000000 =           0. bytes (ABS,CON)

        Value  Global            Value  Global            Value  Global    
        -----  ------            -----  ------            -----  ------    
     0000FF70  _SVBK_REG |    0000FF76  _PCM12_RE |    0000FF77  _PCM34_RE
     0000FF80  .refresh_ |    0000FF80  __HRAM    |    0000FFFF  _IE_REG  
     00014000  s__CODE_1
ASxxxx Linker V03.00 + NoICE + sdld,  page 3.
Hexadecimal  [32-Bits]

Area                       Addr        Size        Decimal Bytes (Attributes)
--------------------       ----        ----        ------- ----- ------------
_CODE                  00000200    00000A97 =        2711. bytes (REL,CON)

        Value  Global            Value  Global            Value  Global    
        -----  ------            -----  ------            -----  ------    
     00000200  A$lcc2039 |    00000200  C$main.c$ |    00000200  C$main.c$
     00000200  G$respawn |    00000200  _respawn_ |    00000203  A$lcc2039
     00000205  A$lcc2039 |    00000205  C$main.c$ |    00000208  A$lcc2039
     0000020A  A$lcc2039 |    0000020D  A$lcc2039 |    0000020F  A$lcc2039
     0000020F  C$main.c$ |    00000212  A$lcc2039 |    00000214  A$lcc2039
     00000215  A$lcc2039 |    00000217  A$lcc2039 |    00000217  C$main.c$
     0000021A  A$lcc2039 |    0000021C  A$lcc2039 |    0000021D  A$lcc2039
     0000021F  A$lcc2039 |    00000222  A$lcc2039 |    00000223  A$lcc2039
     00000226  A$lcc2039 |    00000227  A$lcc2039 |    0000022A  A$lcc2039
     0000022B  A$lcc2039 |    0000022C  A$lcc2039 |    0000022D  A$lcc2039
     0000022E  A$lcc2039 |    00000231  A$lcc2039 |    00000232  A$lcc2039
     00000233  A$lcc2039 |    00000234  A$lcc2039 |    00000237  A$lcc2039
     00000239  A$lcc2039 |    0000023A  A$lcc2039 |    0000023B  A$lcc2039
     0000023C  A$lcc2039 |    0000023D  A$lcc2039 |    0000023E  A$lcc2039
     0000023F  A$lcc2039 |    00000240  A$lcc2039 |    00000241  A$lcc2039
     00000244  A$lcc2039 |    00000246  A$lcc2039 |    00000246  C$main.c$
     00000246  C$main.c$ |    00000246  XG$respaw |    00000247  A$lcc2039
     00000247  C$main.c$ |    00000247  G$move_fr |    00000247  _move_fro
     00000248  A$lcc2039 |    00000249  A$lcc2039 |    00000249  C$main.c$
     0000024C  A$lcc2039 |    0000024D  A$lcc2039 |    0000024F  A$lcc2039
     0000024F  C$main.c$ |    00000252  A$lcc2039 |    00000253  A$lcc2039
     00000255  A$lcc2039 |    00000256  A$lcc2039 |    00000257  A$lcc2039
     00000258  A$lcc2039 |    00000259  A$lcc2039 |    0000025C  A$lcc2039
     0000025E  A$lcc2039 |    00000260  A$lcc2039 |    00000263  A$lcc2039
     00000265  A$lcc2039 |    00000268  A$lcc2039 |    00000269  A$lcc2039
     0000026A  A$lcc2039 |    0000026B  A$lcc2039 |    0000026C  A$lcc2039
     0000026D  A$lcc2039 |    00000270  A$lcc2039 |    00000271  A$lcc2039
     00000272  A$lcc2039 |    00000273  A$lcc2039 |    00000276  A$lcc2039
     00000278  A$lcc2039 |    00000279  A$lcc2039 |    0000027C  A$lcc2039
     0000027D  A$lcc2039 |    0000027E  A$lcc2039 |    0000027F  A$lcc2039
     00000282  A$lcc2039 |    00000283  A$lcc2039 |    00000284  A$lcc2039
     00000285  A$lcc2039 |    00000288  A$lcc2039 |    0000028A  A$lcc2039
     0000028C  A$lcc2039 |    0000028D  A$lcc2039 |    0000028E  A$lcc2039
     0000028F  A$lcc2039 |    00000290  A$lcc2039 |    00000292  A$lcc2039
     00000293  A$lcc2039 |    00000296  A$lcc2039 |    00000298  A$lcc2039
     00000298  C$main.c$ |    0000029A  A$lcc2039 |    0000029A  C$main.c$
     0000029D  A$lcc2039 |    0000029E  A$lcc2039 |    000002A0  A$lcc2039
     000002A0  C$main.c$ |    000002A3  A$lcc2039 |    000002A4  A$lcc2039
     000002A5  A$lcc2039 |    000002A6  A$lcc2039 |    000002A9  A$lcc2039
     000002AB  A$lcc2039 |    000002AD  A$lcc2039 |    000002B0  A$lcc2039
     000002B2  A$lcc2039 |    000002B5  A$lcc2039 |    000002B6  A$lcc2039
     000002B7  A$lcc2039 |    000002B8  A$lcc2039 |    000002BB  A$lcc2039
     000002BC  A$lcc2039 |    000002BD  A$lcc2039 |    000002BE  A$lcc2039
     000002C1  A$lcc2039 |    000002C2  A$lcc2039 |    000002C5  A$lcc2039
     000002C6  A$lcc2039 |    000002C7  A$lcc2039 |    000002C8  A$lcc2039
     000002C9  A$lcc2039 |    000002CC  A$lcc2039 |    000002CD  A$lcc2039
     000002CE  A$lcc2039 |    000002CF  A$lcc2039 |    000002D2  A$lcc2039
     000002D4  A$lcc2039 |    000002D5  A$lcc2039 |    000002D6  A$lcc2039
     000002D7  A$lcc2039 |    000002D8  A$lcc2039 |    000002D9  A$lcc2039
     000002DA  A$lcc2039 |    000002DB  A$lcc2039 |    000002DC  A$lcc2039
ASxxxx Linker V03.00 + NoICE + sdld,  page 4.
Hexadecimal  [32-Bits]

Area                       Addr        Size        Decimal Bytes (Attributes)
--------------------       ----        ----        ------- ----- ------------
_CODE                  00000200    00000A97 =        2711. bytes (REL,CON)

        Value  Global            Value  Global            Value  Global    
        -----  ------            -----  ------            -----  ------    
     000002DF  A$lcc2039 |    000002E1  A$lcc2039 |    000002E1  C$main.c$
     000002E2  A$lcc2039 |    000002E3  A$lcc2039 |    000002E3  C$main.c$
     000002E3  XG$move_f |    000002E4  A$lcc2039 |    000002E4  C$main.c$
     000002E4  C$main.c$ |    000002E4  G$paralla |    000002E4  _parallax
     000002E6  A$lcc2039 |    000002E7  A$lcc2039 |    000002E9  A$lcc2039
     000002EB  A$lcc2039 |    000002ED  A$lcc2039 |    000002EF  A$lcc2039
     000002F1  A$lcc2039 |    000002F3  A$lcc2039 |    000002F5  A$lcc2039
     000002F7  A$lcc2039 |    000002F9  A$lcc2039 |    000002FB  A$lcc2039
     000002FD  A$lcc2039 |    000002FF  A$lcc2039 |    00000301  A$lcc2039
     00000303  A$lcc2039 |    00000305  A$lcc2039 |    00000307  A$lcc2039
     00000309  A$lcc2039 |    0000030B  A$lcc2039 |    0000030E  A$lcc2039
     00000310  A$lcc2039 |    00000313  A$lcc2039 |    00000315  A$lcc2039
     00000318  A$lcc2039 |    0000031A  A$lcc2039 |    0000031D  A$lcc2039
     0000031E  A$lcc2039 |    0000031E  C$main.c$ |    0000031F  A$lcc2039
     00000321  A$lcc2039 |    00000322  A$lcc2039 |    00000324  A$lcc2039
     00000324  C$main.c$ |    00000326  A$lcc2039 |    00000328  A$lcc2039
     00000328  C$main.c$ |    00000329  A$lcc2039 |    00000329  C$main.c$
     0000032C  A$lcc2039 |    0000032E  A$lcc2039 |    0000032F  A$lcc2039
     00000331  A$lcc2039 |    00000331  C$main.c$ |    00000333  A$lcc2039
     00000335  A$lcc2039 |    00000335  C$main.c$ |    00000336  A$lcc2039
     00000336  C$main.c$ |    00000339  A$lcc2039 |    0000033B  A$lcc2039
     0000033C  A$lcc2039 |    0000033E  A$lcc2039 |    0000033E  C$main.c$
     00000340  A$lcc2039 |    00000342  A$lcc2039 |    00000342  C$main.c$
     00000343  A$lcc2039 |    00000343  C$main.c$ |    00000346  A$lcc2039
     00000348  A$lcc2039 |    00000349  A$lcc2039 |    0000034B  A$lcc2039
     0000034B  C$main.c$ |    0000034D  A$lcc2039 |    0000034F  A$lcc2039
     0000034F  C$main.c$ |    00000350  A$lcc2039 |    00000350  C$main.c$
     00000353  A$lcc2039 |    00000355  A$lcc2039 |    00000356  A$lcc2039
     00000358  A$lcc2039 |    00000358  C$main.c$ |    0000035A  A$lcc2039
     0000035C  A$lcc2039 |    0000035C  C$main.c$ |    0000035D  A$lcc2039
     0000035D  C$main.c$ |    00000360  A$lcc2039 |    00000362  A$lcc2039
     00000363  A$lcc2039 |    00000365  A$lcc2039 |    00000365  C$main.c$
     00000367  A$lcc2039 |    00000369  A$lcc2039 |    00000369  C$main.c$
     0000036A  A$lcc2039 |    0000036A  C$main.c$ |    0000036B  A$lcc2039
     0000036D  A$lcc2039 |    0000036E  A$lcc2039 |    00000370  A$lcc2039
     00000370  C$main.c$ |    00000372  A$lcc2039 |    00000374  A$lcc2039
     00000374  C$main.c$ |    00000375  A$lcc2039 |    00000375  C$main.c$
     00000378  A$lcc2039 |    0000037A  A$lcc2039 |    0000037B  A$lcc2039
     0000037D  A$lcc2039 |    0000037D  C$main.c$ |    0000037F  A$lcc2039
     00000381  A$lcc2039 |    00000381  C$main.c$ |    00000382  A$lcc2039
     00000382  C$main.c$ |    00000385  A$lcc2039 |    00000387  A$lcc2039
     00000388  A$lcc2039 |    0000038A  A$lcc2039 |    0000038A  C$main.c$
     0000038C  A$lcc2039 |    0000038E  A$lcc2039 |    0000038E  C$main.c$
     0000038F  A$lcc2039 |    0000038F  C$main.c$ |    00000392  A$lcc2039
     00000394  A$lcc2039 |    00000395  A$lcc2039 |    00000397  A$lcc2039
     00000397  C$main.c$ |    00000399  A$lcc2039 |    0000039B  A$lcc2039
     0000039B  C$main.c$ |    0000039C  A$lcc2039 |    0000039C  C$main.c$
     0000039F  A$lcc2039 |    000003A1  A$lcc2039 |    000003A2  A$lcc2039
     000003A4  A$lcc2039 |    000003A4  C$main.c$ |    000003A6  A$lcc2039
     000003A8  A$lcc2039 |    000003A8  C$main.c$ |    000003A9  A$lcc2039
     000003A9  C$main.c$ |    000003AC  A$lcc2039 |    000003AE  A$lcc2039
ASxxxx Linker V03.00 + NoICE + sdld,  page 5.
Hexadecimal  [32-Bits]

Area                       Addr        Size        Decimal Bytes (Attributes)
--------------------       ----        ----        ------- ----- ------------
_CODE                  00000200    00000A97 =        2711. bytes (REL,CON)

        Value  Global            Value  Global            Value  Global    
        -----  ------            -----  ------            -----  ------    
     000003AF  A$lcc2039 |    000003B1  A$lcc2039 |    000003B1  C$main.c$
     000003B3  A$lcc2039 |    000003B5  A$lcc2039 |    000003B5  C$main.c$
     000003B6  A$lcc2039 |    000003B6  C$main.c$ |    000003B7  A$lcc2039
     000003B9  A$lcc2039 |    000003BA  A$lcc2039 |    000003BC  A$lcc2039
     000003BC  C$main.c$ |    000003BD  A$lcc2039 |    000003BF  A$lcc2039
     000003BF  C$main.c$ |    000003BF  C$main.c$ |    000003BF  XG$parall
     000003C0  A$lcc2039 |    000003C0  C$main.c$ |    000003C0  G$collide
     000003C0  _collide_ |    000003C2  A$lcc2039 |    000003C2  C$main.c$
     000003C4  A$lcc2039 |    000003C5  A$lcc2039 |    000003C7  A$lcc2039
     000003C8  A$lcc2039 |    000003C9  A$lcc2039 |    000003CA  A$lcc2039
     000003CB  A$lcc2039 |    000003CC  A$lcc2039 |    000003CD  A$lcc2039
     000003D0  A$lcc2039 |    000003D1  A$lcc2039 |    000003D2  A$lcc2039
     000003D3  A$lcc2039 |    000003D5  A$lcc2039 |    000003D6  A$lcc2039
     000003D7  A$lcc2039 |    000003D8  A$lcc2039 |    000003DA  A$lcc2039
     000003DB  A$lcc2039 |    000003DC  A$lcc2039 |    000003DD  A$lcc2039
     000003DE  A$lcc2039 |    000003E0  A$lcc2039 |    000003E2  A$lcc2039
     000003E3  A$lcc2039 |    000003E4  A$lcc2039 |    000003E5  A$lcc2039
     000003E6  A$lcc2039 |    000003E7  A$lcc2039 |    000003E8  A$lcc2039
     000003EB  A$lcc2039 |    000003EC  A$lcc2039 |    000003ED  A$lcc2039
     000003EE  A$lcc2039 |    000003F0  A$lcc2039 |    000003F2  A$lcc2039
     000003F4  A$lcc2039 |    000003F6  A$lcc2039 |    000003F8  A$lcc2039
     000003FA  A$lcc2039 |    000003FA  C$main.c$ |    000003FD  A$lcc2039
     000003FE  A$lcc2039 |    000003FF  A$lcc2039 |    00000400  A$lcc2039
     00000401  A$lcc2039 |    00000402  A$lcc2039 |    00000403  A$lcc2039
     00000404  A$lcc2039 |    00000405  A$lcc2039 |    00000405  C$main.c$
     00000406  A$lcc2039 |    00000407  A$lcc2039 |    00000408  A$lcc2039
     0000040A  A$lcc2039 |    0000040B  A$lcc2039 |    0000040C  A$lcc2039
     0000040E  A$lcc2039 |    00000411  A$lcc2039 |    00000411  C$main.c$
     00000413  A$lcc2039 |    00000414  A$lcc2039 |    00000416  A$lcc2039
     00000417  A$lcc2039 |    00000418  A$lcc2039 |    00000419  A$lcc2039
     0000041A  A$lcc2039 |    0000041B  A$lcc2039 |    0000041C  A$lcc2039
     0000041D  A$lcc2039 |    0000041E  A$lcc2039 |    0000041F  A$lcc2039
     00000420  A$lcc2039 |    00000422  A$lcc2039 |    00000423  A$lcc2039
     00000424  A$lcc2039 |    00000425  A$lcc2039 |    00000426  A$lcc2039
     00000427  A$lcc2039 |    00000428  A$lcc2039 |    00000429  A$lcc2039
     0000042B  A$lcc2039 |    0000042C  A$lcc2039 |    0000042E  A$lcc2039
     0000042F  A$lcc2039 |    00000431  A$lcc2039 |    00000432  A$lcc2039
     00000434  A$lcc2039 |    00000435  A$lcc2039 |    00000437  A$lcc2039
     00000439  A$lcc2039 |    0000043B  A$lcc2039 |    0000043C  A$lcc2039
     0000043D  A$lcc2039 |    00000440  A$lcc2039 |    00000441  A$lcc2039
     00000442  A$lcc2039 |    00000443  A$lcc2039 |    00000445  A$lcc2039
     00000446  A$lcc2039 |    00000447  A$lcc2039 |    00000448  A$lcc2039
     0000044A  A$lcc2039 |    0000044B  A$lcc2039 |    0000044D  A$lcc2039
     0000044F  A$lcc2039 |    00000450  A$lcc2039 |    00000452  A$lcc2039
     00000453  A$lcc2039 |    00000455  A$lcc2039 |    00000456  A$lcc2039
     00000458  A$lcc2039 |    00000459  A$lcc2039 |    0000045B  A$lcc2039
     0000045C  A$lcc2039 |    0000045E  A$lcc2039 |    0000045E  C$main.c$
     00000460  A$lcc2039 |    00000461  A$lcc2039 |    00000462  A$lcc2039
     00000463  A$lcc2039 |    00000466  A$lcc2039 |    00000467  A$lcc2039
     00000468  A$lcc2039 |    00000469  A$lcc2039 |    0000046B  A$lcc2039
     0000046C  A$lcc2039 |    0000046D  A$lcc2039 |    0000046E  A$lcc2039
ASxxxx Linker V03.00 + NoICE + sdld,  page 6.
Hexadecimal  [32-Bits]

Area                       Addr        Size        Decimal Bytes (Attributes)
--------------------       ----        ----        ------- ----- ------------
_CODE                  00000200    00000A97 =        2711. bytes (REL,CON)

        Value  Global            Value  Global            Value  Global    
        -----  ------            -----  ------            -----  ------    
     0000046F  A$lcc2039 |    00000470  A$lcc2039 |    00000471  A$lcc2039
     00000473  A$lcc2039 |    00000474  A$lcc2039 |    00000475  A$lcc2039
     00000476  A$lcc2039 |    00000478  A$lcc2039 |    00000479  A$lcc2039
     0000047A  A$lcc2039 |    0000047B  A$lcc2039 |    0000047C  A$lcc2039
     0000047D  A$lcc2039 |    0000047E  A$lcc2039 |    0000047F  A$lcc2039
     00000480  A$lcc2039 |    00000482  A$lcc2039 |    00000484  A$lcc2039
     00000485  A$lcc2039 |    00000486  A$lcc2039 |    00000487  A$lcc2039
     00000488  A$lcc2039 |    0000048B  A$lcc2039 |    0000048C  A$lcc2039
     0000048D  A$lcc2039 |    0000048E  A$lcc2039 |    00000490  A$lcc2039
     00000491  A$lcc2039 |    00000492  A$lcc2039 |    00000493  A$lcc2039
     00000495  A$lcc2039 |    00000496  A$lcc2039 |    00000498  A$lcc2039
     00000499  A$lcc2039 |    0000049A  A$lcc2039 |    0000049A  C$main.c$
     0000049B  A$lcc2039 |    0000049C  A$lcc2039 |    0000049E  A$lcc2039
     000004A0  A$lcc2039 |    000004A2  A$lcc2039 |    000004A4  A$lcc2039
     000004A6  A$lcc2039 |    000004A8  A$lcc2039 |    000004A9  A$lcc2039
     000004AA  A$lcc2039 |    000004AC  A$lcc2039 |    000004AD  A$lcc2039
     000004AE  A$lcc2039 |    000004AF  A$lcc2039 |    000004B0  A$lcc2039
     000004B1  A$lcc2039 |    000004B4  A$lcc2039 |    000004B5  A$lcc2039
     000004B6  A$lcc2039 |    000004B7  A$lcc2039 |    000004B8  A$lcc2039
     000004BA  A$lcc2039 |    000004BA  C$main.c$ |    000004BB  A$lcc2039
     000004BD  A$lcc2039 |    000004BE  A$lcc2039 |    000004BF  A$lcc2039
     000004C0  A$lcc2039 |    000004C1  A$lcc2039 |    000004C2  A$lcc2039
     000004C5  A$lcc2039 |    000004C6  A$lcc2039 |    000004C7  A$lcc2039
     000004C9  A$lcc2039 |    000004C9  C$main.c$ |    000004CA  A$lcc2039
     000004CC  A$lcc2039 |    000004CD  A$lcc2039 |    000004CF  A$lcc2039
     000004D1  A$lcc2039 |    000004D3  A$lcc2039 |    000004D4  A$lcc2039
     000004D6  A$lcc2039 |    000004D7  A$lcc2039 |    000004D9  A$lcc2039
     000004DA  A$lcc2039 |    000004DC  A$lcc2039 |    000004DD  A$lcc2039
     000004DF  A$lcc2039 |    000004E1  A$lcc2039 |    000004E3  A$lcc2039
     000004E4  A$lcc2039 |    000004E6  A$lcc2039 |    000004E7  A$lcc2039
     000004E9  A$lcc2039 |    000004E9  C$main.c$ |    000004EC  A$lcc2039
     000004EE  A$lcc2039 |    000004EE  C$main.c$ |    000004EE  XG$collid
     000004EF  A$lcc2039 |    000004EF  C$main.c$ |    000004EF  C$main.c$
     000004EF  G$main$0$ |    000004EF  _main     |    000004F1  A$lcc2039
     000004F3  A$lcc2039 |    000004F3  C$main.c$ |    000004F4  A$lcc2039
     000004F6  A$lcc2039 |    000004F6  C$main.c$ |    000004F7  A$lcc2039
     000004F7  C$main.c$ |    000004FA  A$lcc2039 |    000004FB  A$lcc2039
     000004FE  A$lcc2039 |    000004FF  A$lcc2039 |    00000500  A$lcc2039
     00000500  C$main.c$ |    00000502  A$lcc2039 |    00000503  A$lcc2039
     00000504  A$lcc2039 |    00000507  A$lcc2039 |    00000508  A$lcc2039
     00000508  C$main.c$ |    00000509  A$lcc2039 |    0000050B  A$lcc2039
     0000050B  C$main.c$ |    0000050D  A$lcc2039 |    0000050F  A$lcc2039
     0000050F  C$main.c$ |    00000511  A$lcc2039 |    00000513  A$lcc2039
     00000515  A$lcc2039 |    00000515  C$main.c$ |    00000517  A$lcc2039
     00000519  A$lcc2039 |    0000051B  A$lcc2039 |    0000051B  C$main.c$
     0000051D  A$lcc2039 |    0000051F  A$lcc2039 |    00000521  A$lcc2039
     00000521  C$main.c$ |    00000523  A$lcc2039 |    00000525  A$lcc2039
     00000527  A$lcc2039 |    00000527  C$main.c$ |    0000052A  A$lcc2039
     0000052B  A$lcc2039 |    0000052E  A$lcc2039 |    0000052F  A$lcc2039
     00000532  A$lcc2039 |    00000534  A$lcc2039 |    00000534  C$main.c$
     00000537  A$lcc2039 |    00000538  A$lcc2039 |    0000053B  A$lcc2039
ASxxxx Linker V03.00 + NoICE + sdld,  page 7.
Hexadecimal  [32-Bits]

Area                       Addr        Size        Decimal Bytes (Attributes)
--------------------       ----        ----        ------- ----- ------------
_CODE                  00000200    00000A97 =        2711. bytes (REL,CON)

        Value  Global            Value  Global            Value  Global    
        -----  ------            -----  ------            -----  ------    
     0000053C  A$lcc2039 |    0000053F  A$lcc2039 |    00000541  A$lcc2039
     00000541  C$main.c$ |    00000544  A$lcc2039 |    00000545  A$lcc2039
     00000548  A$lcc2039 |    00000549  A$lcc2039 |    0000054A  A$lcc2039
     0000054B  A$lcc2039 |    0000054C  A$lcc2039 |    0000054F  A$lcc2039
     00000551  A$lcc2039 |    00000551  C$main.c$ |    00000554  A$lcc2039
     00000556  A$lcc2039 |    00000557  A$lcc2039 |    00000559  A$lcc2039
     00000559  C$main.c$ |    0000055C  A$lcc2039 |    0000055E  A$lcc2039
     0000055F  A$lcc2039 |    00000561  A$lcc2039 |    00000564  A$lcc2039
     00000565  A$lcc2039 |    00000568  A$lcc2039 |    00000569  A$lcc2039
     0000056C  A$lcc2039 |    0000056D  A$lcc2039 |    0000056E  A$lcc2039
     0000056F  A$lcc2039 |    00000572  A$lcc2039 |    00000573  A$lcc2039
     00000574  A$lcc2039 |    00000575  A$lcc2039 |    00000578  A$lcc2039
     0000057A  A$lcc2039 |    0000057B  A$lcc2039 |    0000057C  A$lcc2039
     0000057D  A$lcc2039 |    0000057F  A$lcc2039 |    00000580  A$lcc2039
     00000583  A$lcc2039 |    00000585  A$lcc2039 |    00000585  C$main.c$
     00000585  C$main.c$ |    00000588  A$lcc2039 |    0000058B  A$lcc2039
     0000058B  C$main.c$ |    0000058E  A$lcc2039 |    00000591  A$lcc2039
     00000592  A$lcc2039 |    00000592  C$main.c$ |    00000595  A$lcc2039
     00000596  A$lcc2039 |    00000599  A$lcc2039 |    0000059A  A$lcc2039
     0000059B  A$lcc2039 |    0000059C  A$lcc2039 |    0000059D  A$lcc2039
     000005A0  A$lcc2039 |    000005A1  A$lcc2039 |    000005A1  C$main.c$
     000005A4  A$lcc2039 |    000005A5  A$lcc2039 |    000005A8  A$lcc2039
     000005A8  C$main.c$ |    000005AB  A$lcc2039 |    000005AE  A$lcc2039
     000005AF  A$lcc2039 |    000005B0  A$lcc2039 |    000005B0  C$main.c$
     000005B1  A$lcc2039 |    000005B2  A$lcc2039 |    000005B4  A$lcc2039
     000005B7  A$lcc2039 |    000005B9  A$lcc2039 |    000005BB  A$lcc2039
     000005BE  A$lcc2039 |    000005C0  A$lcc2039 |    000005C2  A$lcc2039
     000005C5  A$lcc2039 |    000005C7  A$lcc2039 |    000005C9  A$lcc2039
     000005CB  A$lcc2039 |    000005CB  C$main.c$ |    000005CB  C$main.c$
     000005CD  A$lcc2039 |    000005CF  A$lcc2039 |    000005CF  C$main.c$
     000005D2  A$lcc2039 |    000005D4  A$lcc2039 |    000005D4  C$main.c$
     000005D7  A$lcc2039 |    000005D9  A$lcc2039 |    000005D9  C$main.c$
     000005DB  A$lcc2039 |    000005DB  C$main.c$ |    000005DB  C$main.c$
     000005DD  A$lcc2039 |    000005DF  A$lcc2039 |    000005DF  C$main.c$
     000005E2  A$lcc2039 |    000005E4  A$lcc2039 |    000005E4  C$main.c$
     000005E7  A$lcc2039 |    000005E9  A$lcc2039 |    000005E9  C$main.c$
     000005EB  A$lcc2039 |    000005EB  C$main.c$ |    000005EB  C$main.c$
     000005ED  A$lcc2039 |    000005EF  A$lcc2039 |    000005EF  C$main.c$
     000005F2  A$lcc2039 |    000005F4  A$lcc2039 |    000005F4  C$main.c$
     000005F7  A$lcc2039 |    000005F9  A$lcc2039 |    000005F9  C$main.c$
     000005FB  A$lcc2039 |    000005FB  C$main.c$ |    000005FB  C$main.c$
     000005FE  A$lcc2039 |    000005FF  A$lcc2039 |    00000600  A$lcc2039
     00000601  A$lcc2039 |    00000602  A$lcc2039 |    00000604  A$lcc2039
     00000606  A$lcc2039 |    00000607  A$lcc2039 |    00000609  A$lcc2039
     0000060A  A$lcc2039 |    0000060C  A$lcc2039 |    0000060E  A$lcc2039
     00000610  A$lcc2039 |    00000612  A$lcc2039 |    00000613  A$lcc2039
     00000615  A$lcc2039 |    00000617  A$lcc2039 |    00000619  A$lcc2039
     0000061A  A$lcc2039 |    0000061C  A$lcc2039 |    0000061E  A$lcc2039
     00000620  A$lcc2039 |    00000620  C$main.c$ |    00000623  A$lcc2039
     00000625  A$lcc2039 |    00000625  C$main.c$ |    00000628  A$lcc2039
     0000062A  A$lcc2039 |    0000062A  C$main.c$ |    0000062A  C$main.c$
ASxxxx Linker V03.00 + NoICE + sdld,  page 8.
Hexadecimal  [32-Bits]

Area                       Addr        Size        Decimal Bytes (Attributes)
--------------------       ----        ----        ------- ----- ------------
_CODE                  00000200    00000A97 =        2711. bytes (REL,CON)

        Value  Global            Value  Global            Value  Global    
        -----  ------            -----  ------            -----  ------    
     0000062D  A$lcc2039 |    0000062E  A$lcc2039 |    00000630  A$lcc2039
     00000630  C$main.c$ |    00000633  A$lcc2039 |    00000633  C$main.c$
     00000636  A$lcc2039 |    00000638  A$lcc2039 |    0000063A  A$lcc2039
     0000063D  A$lcc2039 |    0000063F  A$lcc2039 |    00000642  A$lcc2039
     00000643  A$lcc2039 |    00000646  A$lcc2039 |    00000647  A$lcc2039
     00000648  A$lcc2039 |    0000064A  A$lcc2039 |    0000064A  C$main.c$
     0000064D  A$lcc2039 |    0000064E  A$lcc2039 |    00000650  A$lcc2039
     00000650  C$main.c$ |    00000653  A$lcc2039 |    00000653  C$main.c$
     00000656  A$lcc2039 |    00000658  A$lcc2039 |    0000065A  A$lcc2039
     0000065D  A$lcc2039 |    0000065F  A$lcc2039 |    00000662  A$lcc2039
     00000663  A$lcc2039 |    00000666  A$lcc2039 |    00000667  A$lcc2039
     00000668  A$lcc2039 |    0000066A  A$lcc2039 |    0000066A  C$main.c$
     0000066D  A$lcc2039 |    0000066E  A$lcc2039 |    00000670  A$lcc2039
     00000673  A$lcc2039 |    00000674  A$lcc2039 |    00000676  A$lcc2039
     00000676  C$main.c$ |    00000679  A$lcc2039 |    0000067B  A$lcc2039
     0000067B  C$main.c$ |    0000067E  A$lcc2039 |    0000067F  A$lcc2039
     00000681  A$lcc2039 |    00000684  A$lcc2039 |    00000685  A$lcc2039
     00000686  A$lcc2039 |    00000689  A$lcc2039 |    0000068B  A$lcc2039
     0000068C  A$lcc2039 |    0000068D  A$lcc2039 |    0000068F  A$lcc2039
     0000068F  C$main.c$ |    00000692  A$lcc2039 |    00000693  A$lcc2039
     00000694  A$lcc2039 |    00000695  A$lcc2039 |    00000695  C$main.c$
     00000696  A$lcc2039 |    00000697  A$lcc2039 |    00000698  A$lcc2039
     00000699  A$lcc2039 |    0000069A  A$lcc2039 |    0000069B  A$lcc2039
     0000069B  C$main.c$ |    0000069C  A$lcc2039 |    0000069D  A$lcc2039
     0000069E  A$lcc2039 |    0000069F  A$lcc2039 |    000006A0  A$lcc2039
     000006A1  A$lcc2039 |    000006A2  A$lcc2039 |    000006A2  C$main.c$
     000006A5  A$lcc2039 |    000006A6  A$lcc2039 |    000006A8  A$lcc2039
     000006AB  A$lcc2039 |    000006AC  A$lcc2039 |    000006AD  A$lcc2039
     000006B0  A$lcc2039 |    000006B2  A$lcc2039 |    000006B3  A$lcc2039
     000006B4  A$lcc2039 |    000006B6  A$lcc2039 |    000006B6  C$main.c$
     000006B9  A$lcc2039 |    000006BA  A$lcc2039 |    000006BB  A$lcc2039
     000006BC  A$lcc2039 |    000006BC  C$main.c$ |    000006BF  A$lcc2039
     000006C1  A$lcc2039 |    000006C3  A$lcc2039 |    000006C3  C$main.c$
     000006C6  A$lcc2039 |    000006C7  A$lcc2039 |    000006C8  A$lcc2039
     000006C9  A$lcc2039 |    000006C9  C$main.c$ |    000006CC  A$lcc2039
     000006CD  A$lcc2039 |    000006CE  A$lcc2039 |    000006CF  A$lcc2039
     000006CF  C$main.c$ |    000006D2  A$lcc2039 |    000006D3  A$lcc2039
     000006D4  A$lcc2039 |    000006D5  A$lcc2039 |    000006D5  C$main.c$
     000006D8  A$lcc2039 |    000006D9  A$lcc2039 |    000006DA  A$lcc2039
     000006DB  A$lcc2039 |    000006DB  C$main.c$ |    000006DE  A$lcc2039
     000006DF  A$lcc2039 |    000006E1  A$lcc2039 |    000006E4  A$lcc2039
     000006E5  A$lcc2039 |    000006E6  A$lcc2039 |    000006E9  A$lcc2039
     000006EB  A$lcc2039 |    000006EC  A$lcc2039 |    000006ED  A$lcc2039
     000006EE  A$lcc2039 |    000006F0  A$lcc2039 |    000006F0  C$main.c$
     000006F3  A$lcc2039 |    000006F4  A$lcc2039 |    000006F5  A$lcc2039
     000006F6  A$lcc2039 |    000006F6  C$main.c$ |    000006F9  A$lcc2039
     000006FA  A$lcc2039 |    000006FB  A$lcc2039 |    000006FC  A$lcc2039
     000006FC  C$main.c$ |    000006FF  A$lcc2039 |    00000700  A$lcc2039
     00000700  C$main.c$ |    00000703  A$lcc2039 |    00000705  A$lcc2039
     00000707  A$lcc2039 |    00000707  C$main.c$ |    0000070A  A$lcc2039
     0000070A  C$main.c$ |    0000070D  A$lcc2039 |    0000070D  C$main.c$
ASxxxx Linker V03.00 + NoICE + sdld,  page 9.
Hexadecimal  [32-Bits]

Area                       Addr        Size        Decimal Bytes (Attributes)
--------------------       ----        ----        ------- ----- ------------
_CODE                  00000200    00000A97 =        2711. bytes (REL,CON)

        Value  Global            Value  Global            Value  Global    
        -----  ------            -----  ------            -----  ------    
     00000710  A$lcc2039 |    00000710  C$main.c$ |    00000710  XG$main$0
     00000713  G$BKG_MAP |    00000713  _BKG_MAP  |    00000B13  G$BKG_TIL
     00000B13  _BKG_TILE |    00000C23  _get_vram |    00000C30  _get_win_
     00000C38  _get_bkg_ |    00000C5F  ___move_m
ASxxxx Linker V03.00 + NoICE + sdld,  page 10.
Hexadecimal  [32-Bits]

Area                       Addr        Size        Decimal Bytes (Attributes)
--------------------       ----        ----        ------- ----- ------------
_HEADER0               00000000    00000001 =           1. bytes (ABS,CON)

        Value  Global            Value  Global            Value  Global    
        -----  ------            -----  ------            -----  ------    
     00000020  .call_hl 
ASxxxx Linker V03.00 + NoICE + sdld,  page 11.
Hexadecimal  [32-Bits]

Area                       Addr        Size        Decimal Bytes (Attributes)
--------------------       ----        ----        ------- ----- ------------
_HEADER1               00000000    00000005 =           5. bytes (ABS,CON)

        Value  Global            Value  Global            Value  Global    
        -----  ------            -----  ------            -----  ------    
     00000028  .MemsetSm
ASxxxx Linker V03.00 + NoICE + sdld,  page 12.
Hexadecimal  [32-Bits]

Area                       Addr        Size        Decimal Bytes (Attributes)
--------------------       ----        ----        ------- ----- ------------
_HEADER2               00000000    00000007 =           7. bytes (ABS,CON)

        Value  Global            Value  Global            Value  Global    
        -----  ------            -----  ------            -----  ------    
     00000030  .MemcpySm
ASxxxx Linker V03.00 + NoICE + sdld,  page 13.
Hexadecimal  [32-Bits]

Area                       Addr        Size        Decimal Bytes (Attributes)
--------------------       ----        ----        ------- ----- ------------
_HEADER3               00000000    00000008 =           8. bytes (ABS,CON)

        Value  Global            Value  Global            Value  Global    
        -----  ------            -----  ------            -----  ------    
ASxxxx Linker V03.00 + NoICE + sdld,  page 14.
Hexadecimal  [32-Bits]

Area                       Addr        Size        Decimal Bytes (Attributes)
--------------------       ----        ----        ------- ----- ------------
_HEADER4               00000000    0000004F =          79. bytes (ABS,CON)

        Value  Global            Value  Global            Value  Global    
        -----  ------            -----  ------            -----  ------    
     00000080  .int      |    0000008F  _wait_int |    0000009C  __standar
     000000AC  _refresh_
ASxxxx Linker V03.00 + NoICE + sdld,  page 15.
Hexadecimal  [32-Bits]

Area                       Addr        Size        Decimal Bytes (Attributes)
--------------------       ----        ----        ------- ----- ------------
_HEADER5               00000000    00000002 =           2. bytes (ABS,CON)

        Value  Global            Value  Global            Value  Global    
        -----  ------            -----  ------            -----  ------    
ASxxxx Linker V03.00 + NoICE + sdld,  page 16.
Hexadecimal  [32-Bits]

Area                       Addr        Size        Decimal Bytes (Attributes)
--------------------       ----        ----        ------- ----- ------------
_HEADER6               00000000    00000030 =          48. bytes (ABS,CON)

        Value  Global            Value  Global            Value  Global    
        -----  ------            -----  ------            -----  ------    
ASxxxx Linker V03.00 + NoICE + sdld,  page 17.
Hexadecimal  [32-Bits]

Area                       Addr        Size        Decimal Bytes (Attributes)
--------------------       ----        ----        ------- ----- ------------
_HEADER7               00000000    00000006 =           6. bytes (ABS,CON)

        Value  Global            Value  Global            Value  Global    
        -----  ------            -----  ------            -----  ------    
ASxxxx Linker V03.00 + NoICE + sdld,  page 18.
Hexadecimal  [32-Bits]

Area                       Addr        Size        Decimal Bytes (Attributes)
--------------------       ----        ----        ------- ----- ------------
_HEADER8               00000000    00000003 =           3. bytes (ABS,CON)

        Value  Global            Value  Global            Value  Global    
        -----  ------            -----  ------            -----  ------    
ASxxxx Linker V03.00 + NoICE + sdld,  page 19.
Hexadecimal  [32-Bits]

Area                       Addr        Size        Decimal Bytes (Attributes)
--------------------       ----        ----        ------- ----- ------------
_HEADER9               00000000    00000001 =           1. bytes (ABS,CON)

        Value  Global            Value  Global            Value  Global    
        -----  ------            -----  ------            -----  ------    
ASxxxx Linker V03.00 + NoICE + sdld,  page 20.
Hexadecimal  [32-Bits]

Area                       Addr        Size        Decimal Bytes (Attributes)
--------------------       ----        ----        ------- ----- ------------
_HEADERa               00000000    00000001 =           1. bytes (ABS,CON)

        Value  Global            Value  Global            Value  Global    
        -----  ------            -----  ------            -----  ------    
ASxxxx Linker V03.00 + NoICE + sdld,  page 21.
Hexadecimal  [32-Bits]

Area                       Addr        Size        Decimal Bytes (Attributes)
--------------------       ----        ----        ------- ----- ------------
_HEADERb               00000000    00000001 =           1. bytes (ABS,CON)

        Value  Global            Value  Global            Value  Global    
        -----  ------            -----  ------            -----  ------    
ASxxxx Linker V03.00 + NoICE + sdld,  page 22.
Hexadecimal  [32-Bits]

Area                       Addr        Size        Decimal Bytes (Attributes)
--------------------       ----        ----        ------- ----- ------------
_HEADERc               00000000    00000002 =           2. bytes (ABS,CON)

        Value  Global            Value  Global            Value  Global    
        -----  ------            -----  ------            -----  ------    
ASxxxx Linker V03.00 + NoICE + sdld,  page 23.
Hexadecimal  [32-Bits]

Area                       Addr        Size        Decimal Bytes (Attributes)
--------------------       ----        ----        ------- ----- ------------
_HEADERd               00000000    00000001 =           1. bytes (ABS,CON)

        Value  Global            Value  Global            Value  Global    
        -----  ------            -----  ------            -----  ------    
ASxxxx Linker V03.00 + NoICE + sdld,  page 24.
Hexadecimal  [32-Bits]

Area                       Addr        Size        Decimal Bytes (Attributes)
--------------------       ----        ----        ------- ----- ------------
_HEADERe               00000000    00000001 =           1. bytes (ABS,CON)

        Value  Global            Value  Global            Value  Global    
        -----  ------            -----  ------            -----  ------    
ASxxxx Linker V03.00 + NoICE + sdld,  page 25.
Hexadecimal  [32-Bits]

Area                       Addr        Size        Decimal Bytes (Attributes)
--------------------       ----        ----        ------- ----- ------------
_HEADERf               00000000    00000002 =           2. bytes (ABS,CON)

        Value  Global            Value  Global            Value  Global    
        -----  ------            -----  ------            -----  ------    
ASxxxx Linker V03.00 + NoICE + sdld,  page 26.
Hexadecimal  [32-Bits]

Area                       Addr        Size        Decimal Bytes (Attributes)
--------------------       ----        ----        ------- ----- ------------
_HEADER10              00000000    00000082 =         130. bytes (ABS,CON)

        Value  Global            Value  Global            Value  Global    
        -----  ------            -----  ------            -----  ------    
     00000150  .reset    |    00000150  _reset    |    00000157  .code_sta
     000001B7  _exit     |    000001BB  _set_inte
ASxxxx Linker V03.00 + NoICE + sdld,  page 27.
Hexadecimal  [32-Bits]

Area                       Addr        Size        Decimal Bytes (Attributes)
--------------------       ----        ----        ------- ----- ------------
_HEADER11              00000000    00000001 =           1. bytes (ABS,CON)

        Value  Global            Value  Global            Value  Global    
        -----  ------            -----  ------            -----  ------    
ASxxxx Linker V03.00 + NoICE + sdld,  page 28.
Hexadecimal  [32-Bits]

Area                       Addr        Size        Decimal Bytes (Attributes)
--------------------       ----        ----        ------- ----- ------------
_HOME                  00000C97    000002F3 =         755. bytes (REL,CON)

        Value  Global            Value  Global            Value  Global    
        -----  ------            -----  ------            -----  ------    
     00000C97  .memset_s |    00000CA0  .memcpy_s |    00000CBD  .remove_V
     00000CC0  .remove_i |    00000CDD  .add_VBL  |    00000CE0  .add_int 
     00000CEB  .wait_vbl |    00000CEB  _wait_vbl |    00000CFB  .display_
     00000CFB  _display_ |    00000D13  _remove_V |    00000D1E  _add_VBL 
     00000D29  _set_tile |    00000D2E  _set_bkg_ |    00000D2E  _set_win_
     00000D36  _set_spri |    00000D66  .padup    |    00000D66  _waitpadu
     00000D76  .jpad     |    00000D76  _joypad   |    00000D9E  _waitpad 
     00000DA1  .wait_pad |    00000DD7  _add_LCD  |    00000DE2  .add_LCD 
     00000DE8  _remove_L |    00000DF3  .remove_L |    00000DF9  __divsuch
     00000E06  __modsuch |    00000E10  __divusch |    00000E22  __modusch
     00000E32  __divscha |    00000E3E  __modscha |    00000E48  __divsint
     00000E59  __modsint |    00000E68  __divucha |    00000E74  __moducha
     00000E7E  __divuint |    00000E8F  __moduint |    00000E9E  .div8    
     00000E9E  .mod8     |    00000EA6  .div16    |    00000EA6  .mod16   
     00000EDC  .divu8    |    00000EDC  .modu8    |    00000EDF  .divu16  
     00000EDF  .modu16   |    00000F20  _set_bkg_ |    00000F34  .set_xy_w
     00000F3D  .set_xy_b |    00000F4C  .set_xy_t
ASxxxx Linker V03.00 + NoICE + sdld,  page 29.
Hexadecimal  [32-Bits]

Area                       Addr        Size        Decimal Bytes (Attributes)
--------------------       ----        ----        ------- ----- ------------
_INITIALIZER           00000F8A    00000025 =          37. bytes (REL,CON)

        Value  Global            Value  Global            Value  Global    
        -----  ------            -----  ------            -----  ------    
     00000F8A  Fmain$__x
ASxxxx Linker V03.00 + NoICE + sdld,  page 30.
Hexadecimal  [32-Bits]

Area                       Addr        Size        Decimal Bytes (Attributes)
--------------------       ----        ----        ------- ----- ------------
_GSINIT                00000FAF    0000000C =          12. bytes (REL,CON)

        Value  Global            Value  Global            Value  Global    
        -----  ------            -----  ------            -----  ------    
     00000FAF  gsinit   
ASxxxx Linker V03.00 + NoICE + sdld,  page 31.
Hexadecimal  [32-Bits]

Area                       Addr        Size        Decimal Bytes (Attributes)
--------------------       ----        ----        ------- ----- ------------
_GSFINAL               00000FBB    00000001 =           1. bytes (REL,CON)

        Value  Global            Value  Global            Value  Global    
        -----  ------            -----  ------            -----  ------    
ASxxxx Linker V03.00 + NoICE + sdld,  page 32.
Hexadecimal  [32-Bits]

Area                       Addr        Size        Decimal Bytes (Attributes)
--------------------       ----        ----        ------- ----- ------------
_DATA                  0000C0A0    00000043 =          67. bytes (REL,CON)

        Value  Global            Value  Global            Value  Global    
        -----  ------            -----  ------            -----  ------    
     0000C0A0  __cpu     |    0000C0A1  __is_GBA  |    0000C0A2  .mode    
     0000C0A3  .sys_time |    0000C0A3  _sys_time |    0000C0A5  .int_0x40
     0000C0B9  G$scroll$ |    0000C0B9  _scroll   |    0000C0C3  G$PLAYER$
     0000C0C3  _PLAYER   |    0000C0CA  G$joy$0_0 |    0000C0CA  _joy     
     0000C0CB  G$last_jo |    0000C0CB  _last_joy |    0000C0CC  G$is_movi
     0000C0CC  _is_movin |    0000C0CD  G$move_x$ |    0000C0CD  _move_x  
     0000C0CE  G$move_y$ |    0000C0CE  _move_y   |    0000C0CF  G$scx_cou
     0000C0CF  _scx_coun |    0000C0D0  ___curren |    0000C0D2  ___curren
     0000C0D3  .int_0x48
ASxxxx Linker V03.00 + NoICE + sdld,  page 33.
Hexadecimal  [32-Bits]

Area                       Addr        Size        Decimal Bytes (Attributes)
--------------------       ----        ----        ------- ----- ------------
_INITIALIZED           0000C0E3    00000025 =          37. bytes (REL,CON)

        Value  Global            Value  Global            Value  Global    
        -----  ------            -----  ------            -----  ------    
     0000C0E3  G$scroll_ |    0000C0E3  _scroll_r |    0000C107  ___render
ASxxxx Linker V03.00 + NoICE + sdld,  page 34.
Hexadecimal  [32-Bits]

Area                       Addr        Size        Decimal Bytes (Attributes)
--------------------       ----        ----        ------- ----- ------------
_HRAM12                00000000    00000003 =           3. bytes (ABS,CON)

        Value  Global            Value  Global            Value  Global    
        -----  ------            -----  ------            -----  ------    
     0000FF90  __current |    0000FF92  __shadow_
ASxxxx Linker V03.00 + NoICE + sdld,  page 35.
Hexadecimal  [32-Bits]

Area                       Addr        Size        Decimal Bytes (Attributes)
--------------------       ----        ----        ------- ----- ------------
_CODE_1                00014000    000000AC =         172. bytes (REL,CON)

        Value  Global            Value  Global            Value  Global    
        -----  ------            -----  ------            -----  ------    
     00014000  C$frogger |    00014000  G$__func_ |    00014000  G$frogger
     00014000  ___func_f |    00014000  _frogger_ |    00014008  G$frogger
     00014008  _frogger_ |    00014048  G$frogger |    00014048  _frogger_
     00014054  G$frogger |    00014054  _frogger_ |    00014056  C$frogger
     00014056  G$__func_ |    00014056  G$frogger |    00014056  ___func_f
     00014056  _frogger_ |    0001405E  G$frogger |    0001405E  _frogger_
     0001409E  G$frogger |    0001409E  _frogger_ |    000140AA  G$frogger
     000140AA  _frogger_
ASxxxx Linker V03.00 + NoICE + sdld,  page 36.
Hexadecimal  [32-Bits]

Area                       Addr        Size        Decimal Bytes (Attributes)
--------------------       ----        ----        ------- ----- ------------
_HEADER_LCD0           00000000    00000003 =           3. bytes (ABS,CON)

        Value  Global            Value  Global            Value  Global    
        -----  ------            -----  ------            -----  ------    
ASxxxx Linker V03.00 + NoICE + sdld,  page 37.

Files Linked                              [ module(s) ]

C:\c_code\gbdk\lib/small/asxxxx/gb/crt0.o
                                          [ Runtime ]
C:\Users\User\AppData\Local\Temp/lcc203960.rel
                                          [ main ]
C:\Users\User\AppData\Local\Temp/lcc203961.rel
                                          [ bkg_map ]
C:\Users\User\AppData\Local\Temp/lcc203962.rel
                                          [ bkg_tiles ]
C:\Users\User\AppData\Local\Temp/lcc203963.rel
                                          [ frogger ]
C:\Users\User\AppData\Local\Temp/lcc203964.rel
                                          [ frogger_16 ]


Libraries Linked                          [ object file ]

C:\c_code\gbdk\lib/small/asxxxx/gb/gb.lib
                                          [ sfr.o ]
C:\c_code\gbdk\lib/small/asxxxx/gb/gb.lib
                                          [ get_tile.o ]
C:\c_code\gbdk\lib/small/asxxxx/gb/gb.lib
                                          [ set_data.o ]
C:\c_code\gbdk\lib/small/asxxxx/gb/gb.lib
                                          [ pad.o ]
C:\c_code\gbdk\lib/small/asxxxx/gb/gb.lib
                                          [ metasprites.o ]
C:\c_code\gbdk\lib/small/asxxxx/gb/gb.lib
                                          [ lcd.o ]
C:\c_code\gbdk\lib/small/asxxxx/gbz80/gbz80.lib
                                          [ div.o ]
C:\c_code\gbdk\lib/small/asxxxx/gb/gb.lib
                                          [ set_bk_t.o ]
C:\c_code\gbdk\lib/small/asxxxx/gb/gb.lib
                                          [ set_xy_t.o ]

ASxxxx Linker V03.00 + NoICE + sdld,  page 38.

User Base Address Definitions

_DATA=0xC0A0
_CODE=0x0200
ASxxxx Linker V03.00 + NoICE + sdld,  page 39.

User Global Definitions

_shadow_OAM=0xC000
.STACK=0xE000
.refresh_OAM=0xFF80

